source: samples/toolkit/original/extracted/GEM.DEM

== original:samples/toolkit/survey/outputs/vm/GEMDEM.COM ==
load bytes: 10311  code bytes: 10299  code origin: $3000
segments:
  00: $3000-$583A len 10299 header_off     2 data_off     6
  01: $02E2-$02E3 len     2 header_off 10305 data_off 10309
      RUNAD $02E2 = $576F
opcode counts:
  $00 BRK      2176
  $01 ORA      21
  $02 .BYTE    8
  $04 .BYTE    1
  $05 ORA      1
  $08 PHP      36
  $0A ASL      36
  $0D ORA      2
  $10 BPL      4
  $11 ORA      8
  $14 .BYTE    1
  $16 ASL      1
  $17 .BYTE    2
  $18 CLC      141
  $1A .BYTE    2
  $1B .BYTE    1
  $1D ORA      5
  $20 JSR      258
  $21 AND      5
  $24 BIT      2
  $25 AND      12
  $26 ROL      1
  $28 PLP      35
  $29 AND      4
  $2A ROL      35
  $2E ROL      2
  $30 BMI      5
  $33 .BYTE    1
  $38 SEC      30
  $3A .BYTE    3
  $3B .BYTE    1
  $3C .BYTE    1
  $3F .BYTE    1
  $40 RTI      1
  $41 EOR      1
  $42 .BYTE    1
  $43 .BYTE    1
  $44 .BYTE    2
  $45 EOR      13
  $46 LSR      1
  $48 PHA      6
  $49 EOR      28
  $4A LSR      8
  $4B .BYTE    1
  $4C JMP      219
  $4D EOR      12
  $4E LSR      3
  $50 BVC      2
  $54 .BYTE    1
  $55 EOR      2
  $58 CLI      1
  $5A .BYTE    1
  $5D EOR      2
  $60 RTS      63
  $61 ADC      4
  $62 .BYTE    3
  $63 .BYTE    1
  $64 .BYTE    2
  $65 ADC      17
  $66 ROR      2
  $67 .BYTE    1
  $68 PLA      4
  $69 .BYTE    1
  $69 ADC      77
  $6B .BYTE    1
  $6C JMP      1
  $6D ADC      98
  $6E ROR      7
  $6F .BYTE    11
  $70 BVS      1
  $71 ADC      12
  $72 .BYTE    7
  $73 .BYTE    4
  $74 .BYTE    3
  $75 ADC      2
  $76 ROR      1
  $77 .BYTE    2
  $79 ADC      2
  $7C .BYTE    1
  $7E ROR      4
  $7F .BYTE    1
  $80 .BYTE    1
  $81 STA      3
  $85 STA      408
  $88 DEY      18
  $89 .BYTE    1
  $8A TXA      20
  $8C STY      46
  $8D STA      95
  $8E STX      6
  $90 BCC      19
  $91 STA      15
  $99 STA      1
  $9D STA      50
  $A0 LDY      94
  $A2 LDX      75
  $A4 LDY      30
  $A5 LDA      141
  $A6 LDX      65
  $A7 .BYTE    1
  $A9 LDA      310
  $AA TAX      5
  $AC LDY      32
  $AD LDA      250
  $AE LDX      171
  $B0 BCS      39
  $B1 LDA      27
  $BD LDA      106
  $C3 .BYTE    3
  $C5 CMP      1
  $C8 INY      14
  $C9 CMP      9
  $CC CPY      1
  $CD CMP      45
  $D0 BNE      16
  $D1 CMP      1
  $DB .BYTE    2
  $DD CMP      4
  $E5 SBC      5
  $E7 .BYTE    2
  $E9 SBC      15
  $ED SBC      19
  $EE INC      41
  $F0 BEQ      55
  $FD SBC      2
  $FE INC      6
  $FF .BYTE    9

== original disassembly: original:samples/toolkit/survey/outputs/vm/GEMDEM.COM ==
segment 00 $3000-$583A len 10299
rb: ; final BYTE
  $3000 01 00    ORA ($00,X)
ms: ; final BYTE
  $3002 46 87    LSR $87
ex: ; final BYTE
  $3004 48       PHA
gm: ; final BYTE
  $3005 CC 4D 00 CPY $004D
numbots: ; final BYTE
  $3008 00       BRK
winner: ; final BYTE
  $3009 00       BRK
winning: ; final BYTE
  $300A 00       BRK
playto: ; final BYTE
  $300B 0A       ASL A
maxbots: ; final BYTE
  $300C 05 65    ORA $65
  $300E 66 FE    ROR $FE
  $3010 01 67    ORA ($67,X)
  $3012 64       .BYTE $64
  $3013 FE 01 69 INC $6901,X
  $3016 62       .BYTE $62
  $3017 FE 01 6B INC $6B01,X
  $301A 60       RTS
  $301B FE 01 3B INC $3B01,X
  $301E 60       RTS
  $301F 30 00    BMI $3021 ; alive $3021
alive: ; final BYTE ARRAY
  $3021 1D 30 FF ORA $FF30,X
  $3024 00       BRK
  $3025 00       BRK
  $3026 00       BRK
  $3027 00       BRK
  $3028 00       BRK
  $3029 00       BRK
  $302A 00       BRK
  $302B 00       BRK
  $302C 00       BRK
  $302D 00       BRK
  $302E 00       BRK
  $302F 00       BRK
  $3030 00       BRK
  $3031 00       BRK
  $3032 00       BRK
  $3033 00       BRK
  $3034 00       BRK
  $3035 00       BRK
  $3036 00       BRK
  $3037 00       BRK
  $3038 00       BRK
  $3039 00       BRK
  $303A 00       BRK
  $303B 00       BRK
  $303C 00       BRK
  $303D 00       BRK
  $303E 00       BRK
  $303F 00       BRK
  $3040 00       BRK
  $3041 00       BRK
  $3042 00       BRK
  $3043 00       BRK
  $3044 00       BRK
  $3045 00       BRK
  $3046 00       BRK
  $3047 00       BRK
  $3048 00       BRK
  $3049 00       BRK
  $304A 00       BRK
  $304B 00       BRK
  $304C 00       BRK
  $304D 00       BRK
  $304E 00       BRK
  $304F 00       BRK
  $3050 00       BRK
  $3051 00       BRK
  $3052 00       BRK
  $3053 00       BRK
  $3054 00       BRK
  $3055 00       BRK
  $3056 00       BRK
  $3057 00       BRK
  $3058 00       BRK
  $3059 00       BRK
  $305A 00       BRK
  $305B 00       BRK
  $305C 00       BRK
  $305D 00       BRK
  $305E 00       BRK
  $305F 00       BRK
  $3060 00       BRK
  $3061 00       BRK
  $3062 00       BRK
  $3063 00       BRK
  $3064 00       BRK
  $3065 00       BRK
  $3066 00       BRK
  $3067 00       BRK
  $3068 00       BRK
  $3069 00       BRK
  $306A 00       BRK
  $306B 00       BRK
  $306C 00       BRK
  $306D 00       BRK
  $306E 00       BRK
  $306F 00       BRK
  $3070 00       BRK
  $3071 00       BRK
  $3072 00       BRK
  $3073 00       BRK
  $3074 00       BRK
  $3075 00       BRK
  $3076 00       BRK
  $3077 00       BRK
  $3078 00       BRK
  $3079 00       BRK
  $307A 00       BRK
  $307B 00       BRK
  $307C 00       BRK
  $307D 00       BRK
  $307E 00       BRK
  $307F 00       BRK
  $3080 00       BRK
  $3081 00       BRK
  $3082 00       BRK
  $3083 00       BRK
  $3084 00       BRK
  $3085 00       BRK
  $3086 00       BRK
  $3087 00       BRK
  $3088 00       BRK
  $3089 00       BRK
  $308A 00       BRK
  $308B 00       BRK
  $308C 00       BRK
  $308D 00       BRK
  $308E 00       BRK
  $308F 00       BRK
  $3090 00       BRK
  $3091 00       BRK
  $3092 00       BRK
  $3093 00       BRK
  $3094 00       BRK
  $3095 00       BRK
  $3096 00       BRK
  $3097 00       BRK
  $3098 00       BRK
  $3099 00       BRK
  $309A 00       BRK
  $309B 00       BRK
  $309C 00       BRK
  $309D 00       BRK
  $309E 00       BRK
  $309F 00       BRK
  $30A0 00       BRK
  $30A1 00       BRK
  $30A2 00       BRK
  $30A3 00       BRK
  $30A4 00       BRK
  $30A5 00       BRK
  $30A6 00       BRK
  $30A7 00       BRK
  $30A8 00       BRK
  $30A9 00       BRK
  $30AA 00       BRK
  $30AB 00       BRK
  $30AC 00       BRK
  $30AD 00       BRK
  $30AE 00       BRK
  $30AF 00       BRK
  $30B0 00       BRK
  $30B1 00       BRK
  $30B2 00       BRK
  $30B3 00       BRK
  $30B4 00       BRK
  $30B5 00       BRK
  $30B6 00       BRK
  $30B7 00       BRK
  $30B8 00       BRK
  $30B9 00       BRK
  $30BA 00       BRK
  $30BB 00       BRK
  $30BC 00       BRK
  $30BD 00       BRK
  $30BE 00       BRK
  $30BF 00       BRK
  $30C0 00       BRK
  $30C1 00       BRK
  $30C2 00       BRK
  $30C3 00       BRK
  $30C4 00       BRK
  $30C5 00       BRK
  $30C6 00       BRK
  $30C7 00       BRK
  $30C8 00       BRK
  $30C9 00       BRK
  $30CA 00       BRK
  $30CB 00       BRK
  $30CC 00       BRK
  $30CD 00       BRK
  $30CE 00       BRK
  $30CF 00       BRK
  $30D0 00       BRK
  $30D1 00       BRK
  $30D2 00       BRK
  $30D3 00       BRK
  $30D4 00       BRK
  $30D5 00       BRK
  $30D6 00       BRK
  $30D7 00       BRK
  $30D8 00       BRK
  $30D9 00       BRK
  $30DA 00       BRK
  $30DB 00       BRK
  $30DC 00       BRK
  $30DD 00       BRK
  $30DE 00       BRK
  $30DF 00       BRK
  $30E0 00       BRK
  $30E1 00       BRK
  $30E2 00       BRK
  $30E3 00       BRK
  $30E4 00       BRK
  $30E5 00       BRK
  $30E6 00       BRK
  $30E7 00       BRK
  $30E8 00       BRK
  $30E9 00       BRK
  $30EA 00       BRK
  $30EB 00       BRK
  $30EC 00       BRK
  $30ED 00       BRK
  $30EE 00       BRK
  $30EF 00       BRK
  $30F0 00       BRK
  $30F1 00       BRK
  $30F2 00       BRK
  $30F3 00       BRK
  $30F4 00       BRK
  $30F5 00       BRK
  $30F6 00       BRK
  $30F7 00       BRK
  $30F8 00       BRK
  $30F9 00       BRK
  $30FA 00       BRK
  $30FB 00       BRK
  $30FC 00       BRK
  $30FD 00       BRK
  $30FE 00       BRK
  $30FF 00       BRK
  $3100 00       BRK
  $3101 00       BRK
  $3102 00       BRK
  $3103 00       BRK
  $3104 00       BRK
  $3105 00       BRK
  $3106 00       BRK
  $3107 00       BRK
  $3108 00       BRK
  $3109 00       BRK
  $310A 00       BRK
  $310B 00       BRK
  $310C 00       BRK
  $310D 00       BRK
  $310E 00       BRK
  $310F 00       BRK
  $3110 00       BRK
  $3111 00       BRK
  $3112 00       BRK
  $3113 00       BRK
  $3114 00       BRK
  $3115 00       BRK
  $3116 00       BRK
  $3117 00       BRK
  $3118 00       BRK
  $3119 00       BRK
  $311A 00       BRK
  $311B 00       BRK
  $311C 00       BRK
  $311D 00       BRK
  $311E 00       BRK
  $311F 00       BRK
expl: ; final BYTE ARRAY
  $3120 1D 30 FF ORA $FF30,X
  $3123 00       BRK
  $3124 00       BRK
  $3125 00       BRK
  $3126 00       BRK
  $3127 00       BRK
  $3128 00       BRK
  $3129 00       BRK
  $312A 00       BRK
  $312B 00       BRK
  $312C 00       BRK
  $312D 00       BRK
  $312E 00       BRK
  $312F 00       BRK
  $3130 00       BRK
  $3131 00       BRK
  $3132 00       BRK
  $3133 00       BRK
  $3134 00       BRK
  $3135 00       BRK
  $3136 00       BRK
  $3137 00       BRK
  $3138 00       BRK
  $3139 00       BRK
  $313A 00       BRK
  $313B 00       BRK
  $313C 00       BRK
  $313D 00       BRK
  $313E 00       BRK
  $313F 00       BRK
  $3140 00       BRK
  $3141 00       BRK
  $3142 00       BRK
  $3143 00       BRK
  $3144 00       BRK
  $3145 00       BRK
  $3146 00       BRK
  $3147 00       BRK
  $3148 00       BRK
  $3149 00       BRK
  $314A 00       BRK
  $314B 00       BRK
  $314C 00       BRK
  $314D 00       BRK
  $314E 00       BRK
  $314F 00       BRK
  $3150 00       BRK
  $3151 00       BRK
  $3152 00       BRK
  $3153 00       BRK
  $3154 00       BRK
  $3155 00       BRK
  $3156 00       BRK
  $3157 00       BRK
  $3158 00       BRK
  $3159 00       BRK
  $315A 00       BRK
  $315B 00       BRK
  $315C 00       BRK
  $315D 00       BRK
  $315E 00       BRK
  $315F 00       BRK
  $3160 00       BRK
  $3161 00       BRK
  $3162 00       BRK
  $3163 00       BRK
  $3164 00       BRK
  $3165 00       BRK
  $3166 00       BRK
  $3167 00       BRK
  $3168 00       BRK
  $3169 00       BRK
  $316A 00       BRK
  $316B 00       BRK
  $316C 00       BRK
  $316D 00       BRK
  $316E 00       BRK
  $316F 00       BRK
  $3170 00       BRK
  $3171 00       BRK
  $3172 00       BRK
  $3173 00       BRK
  $3174 00       BRK
  $3175 00       BRK
  $3176 00       BRK
  $3177 00       BRK
  $3178 00       BRK
  $3179 00       BRK
  $317A 00       BRK
  $317B 00       BRK
  $317C 00       BRK
  $317D 00       BRK
  $317E 00       BRK
  $317F 00       BRK
  $3180 00       BRK
  $3181 00       BRK
  $3182 00       BRK
  $3183 00       BRK
  $3184 00       BRK
  $3185 00       BRK
  $3186 00       BRK
  $3187 00       BRK
  $3188 00       BRK
  $3189 00       BRK
  $318A 00       BRK
  $318B 00       BRK
  $318C 00       BRK
  $318D 00       BRK
  $318E 00       BRK
  $318F 00       BRK
  $3190 00       BRK
  $3191 00       BRK
  $3192 00       BRK
  $3193 00       BRK
  $3194 00       BRK
  $3195 00       BRK
  $3196 00       BRK
  $3197 00       BRK
  $3198 00       BRK
  $3199 00       BRK
  $319A 00       BRK
  $319B 00       BRK
  $319C 00       BRK
  $319D 00       BRK
  $319E 00       BRK
  $319F 00       BRK
  $31A0 00       BRK
  $31A1 00       BRK
  $31A2 00       BRK
  $31A3 00       BRK
  $31A4 00       BRK
  $31A5 00       BRK
  $31A6 00       BRK
  $31A7 00       BRK
  $31A8 00       BRK
  $31A9 00       BRK
  $31AA 00       BRK
  $31AB 00       BRK
  $31AC 00       BRK
  $31AD 00       BRK
  $31AE 00       BRK
  $31AF 00       BRK
  $31B0 00       BRK
  $31B1 00       BRK
  $31B2 00       BRK
  $31B3 00       BRK
  $31B4 00       BRK
  $31B5 00       BRK
  $31B6 00       BRK
  $31B7 00       BRK
  $31B8 00       BRK
  $31B9 00       BRK
  $31BA 00       BRK
  $31BB 00       BRK
  $31BC 00       BRK
  $31BD 00       BRK
  $31BE 00       BRK
  $31BF 00       BRK
  $31C0 00       BRK
  $31C1 00       BRK
  $31C2 00       BRK
  $31C3 00       BRK
  $31C4 00       BRK
  $31C5 00       BRK
  $31C6 00       BRK
  $31C7 00       BRK
  $31C8 00       BRK
  $31C9 00       BRK
  $31CA 00       BRK
  $31CB 00       BRK
  $31CC 00       BRK
  $31CD 00       BRK
  $31CE 00       BRK
  $31CF 00       BRK
  $31D0 00       BRK
  $31D1 00       BRK
  $31D2 00       BRK
  $31D3 00       BRK
  $31D4 00       BRK
  $31D5 00       BRK
  $31D6 00       BRK
  $31D7 00       BRK
  $31D8 00       BRK
  $31D9 00       BRK
  $31DA 00       BRK
  $31DB 00       BRK
  $31DC 00       BRK
  $31DD 00       BRK
  $31DE 00       BRK
  $31DF 00       BRK
  $31E0 00       BRK
  $31E1 00       BRK
  $31E2 00       BRK
  $31E3 00       BRK
  $31E4 00       BRK
  $31E5 00       BRK
  $31E6 00       BRK
  $31E7 00       BRK
  $31E8 00       BRK
  $31E9 00       BRK
  $31EA 00       BRK
  $31EB 00       BRK
  $31EC 00       BRK
  $31ED 00       BRK
  $31EE 00       BRK
  $31EF 00       BRK
  $31F0 00       BRK
  $31F1 00       BRK
  $31F2 00       BRK
  $31F3 00       BRK
  $31F4 00       BRK
  $31F5 00       BRK
  $31F6 00       BRK
  $31F7 00       BRK
  $31F8 00       BRK
  $31F9 00       BRK
  $31FA 00       BRK
  $31FB 00       BRK
  $31FC 00       BRK
  $31FD 00       BRK
  $31FE 00       BRK
  $31FF 00       BRK
  $3200 00       BRK
  $3201 00       BRK
  $3202 00       BRK
  $3203 00       BRK
  $3204 00       BRK
  $3205 00       BRK
  $3206 00       BRK
  $3207 00       BRK
  $3208 00       BRK
  $3209 00       BRK
  $320A 00       BRK
  $320B 00       BRK
  $320C 00       BRK
  $320D 00       BRK
  $320E 00       BRK
  $320F 00       BRK
  $3210 00       BRK
  $3211 00       BRK
  $3212 00       BRK
  $3213 00       BRK
  $3214 00       BRK
  $3215 00       BRK
  $3216 00       BRK
  $3217 00       BRK
  $3218 00       BRK
  $3219 00       BRK
  $321A 00       BRK
  $321B 00       BRK
  $321C 00       BRK
  $321D 00       BRK
  $321E 00       BRK
fire: ; final BYTE ARRAY
  $321F 1D 30 FF ORA $FF30,X
  $3222 00       BRK
  $3223 00       BRK
  $3224 00       BRK
  $3225 00       BRK
  $3226 00       BRK
  $3227 00       BRK
  $3228 00       BRK
  $3229 00       BRK
  $322A 00       BRK
  $322B 00       BRK
  $322C 00       BRK
  $322D 00       BRK
  $322E 00       BRK
  $322F 00       BRK
  $3230 00       BRK
  $3231 00       BRK
  $3232 00       BRK
  $3233 00       BRK
  $3234 00       BRK
  $3235 00       BRK
  $3236 00       BRK
  $3237 00       BRK
  $3238 00       BRK
  $3239 00       BRK
  $323A 00       BRK
  $323B 00       BRK
  $323C 00       BRK
  $323D 00       BRK
  $323E 00       BRK
  $323F 00       BRK
  $3240 00       BRK
  $3241 00       BRK
  $3242 00       BRK
  $3243 00       BRK
  $3244 00       BRK
  $3245 00       BRK
  $3246 00       BRK
  $3247 00       BRK
  $3248 00       BRK
  $3249 00       BRK
  $324A 00       BRK
  $324B 00       BRK
  $324C 00       BRK
  $324D 00       BRK
  $324E 00       BRK
  $324F 00       BRK
  $3250 00       BRK
  $3251 00       BRK
  $3252 00       BRK
  $3253 00       BRK
  $3254 00       BRK
  $3255 00       BRK
  $3256 00       BRK
  $3257 00       BRK
  $3258 00       BRK
  $3259 00       BRK
  $325A 00       BRK
  $325B 00       BRK
  $325C 00       BRK
  $325D 00       BRK
  $325E 00       BRK
  $325F 00       BRK
  $3260 00       BRK
  $3261 00       BRK
  $3262 00       BRK
  $3263 00       BRK
  $3264 00       BRK
  $3265 00       BRK
  $3266 00       BRK
  $3267 00       BRK
  $3268 00       BRK
  $3269 00       BRK
  $326A 00       BRK
  $326B 00       BRK
  $326C 00       BRK
  $326D 00       BRK
  $326E 00       BRK
  $326F 00       BRK
  $3270 00       BRK
  $3271 00       BRK
  $3272 00       BRK
  $3273 00       BRK
  $3274 00       BRK
  $3275 00       BRK
  $3276 00       BRK
  $3277 00       BRK
  $3278 00       BRK
  $3279 00       BRK
  $327A 00       BRK
  $327B 00       BRK
  $327C 00       BRK
  $327D 00       BRK
  $327E 00       BRK
  $327F 00       BRK
  $3280 00       BRK
  $3281 00       BRK
  $3282 00       BRK
  $3283 00       BRK
  $3284 00       BRK
  $3285 00       BRK
  $3286 00       BRK
  $3287 00       BRK
  $3288 00       BRK
  $3289 00       BRK
  $328A 00       BRK
  $328B 00       BRK
  $328C 00       BRK
  $328D 00       BRK
  $328E 00       BRK
  $328F 00       BRK
  $3290 00       BRK
  $3291 00       BRK
  $3292 00       BRK
  $3293 00       BRK
  $3294 00       BRK
  $3295 00       BRK
  $3296 00       BRK
  $3297 00       BRK
  $3298 00       BRK
  $3299 00       BRK
  $329A 00       BRK
  $329B 00       BRK
  $329C 00       BRK
  $329D 00       BRK
  $329E 00       BRK
  $329F 00       BRK
  $32A0 00       BRK
  $32A1 00       BRK
  $32A2 00       BRK
  $32A3 00       BRK
  $32A4 00       BRK
  $32A5 00       BRK
  $32A6 00       BRK
  $32A7 00       BRK
  $32A8 00       BRK
  $32A9 00       BRK
  $32AA 00       BRK
  $32AB 00       BRK
  $32AC 00       BRK
  $32AD 00       BRK
  $32AE 00       BRK
  $32AF 00       BRK
  $32B0 00       BRK
  $32B1 00       BRK
  $32B2 00       BRK
  $32B3 00       BRK
  $32B4 00       BRK
  $32B5 00       BRK
  $32B6 00       BRK
  $32B7 00       BRK
  $32B8 00       BRK
  $32B9 00       BRK
  $32BA 00       BRK
  $32BB 00       BRK
  $32BC 00       BRK
  $32BD 00       BRK
  $32BE 00       BRK
  $32BF 00       BRK
  $32C0 00       BRK
  $32C1 00       BRK
  $32C2 00       BRK
  $32C3 00       BRK
  $32C4 00       BRK
  $32C5 00       BRK
  $32C6 00       BRK
  $32C7 00       BRK
  $32C8 00       BRK
  $32C9 00       BRK
  $32CA 00       BRK
  $32CB 00       BRK
  $32CC 00       BRK
  $32CD 00       BRK
  $32CE 00       BRK
  $32CF 00       BRK
  $32D0 00       BRK
  $32D1 00       BRK
  $32D2 00       BRK
  $32D3 00       BRK
  $32D4 00       BRK
  $32D5 00       BRK
  $32D6 00       BRK
  $32D7 00       BRK
  $32D8 00       BRK
  $32D9 00       BRK
  $32DA 00       BRK
  $32DB 00       BRK
  $32DC 00       BRK
  $32DD 00       BRK
  $32DE 00       BRK
  $32DF 00       BRK
  $32E0 00       BRK
  $32E1 00       BRK
  $32E2 00       BRK
  $32E3 00       BRK
  $32E4 00       BRK
  $32E5 00       BRK
  $32E6 00       BRK
  $32E7 00       BRK
  $32E8 00       BRK
  $32E9 00       BRK
  $32EA 00       BRK
  $32EB 00       BRK
  $32EC 00       BRK
  $32ED 00       BRK
  $32EE 00       BRK
  $32EF 00       BRK
  $32F0 00       BRK
  $32F1 00       BRK
  $32F2 00       BRK
  $32F3 00       BRK
  $32F4 00       BRK
  $32F5 00       BRK
  $32F6 00       BRK
  $32F7 00       BRK
  $32F8 00       BRK
  $32F9 00       BRK
  $32FA 00       BRK
  $32FB 00       BRK
  $32FC 00       BRK
  $32FD 00       BRK
  $32FE 00       BRK
  $32FF 00       BRK
  $3300 00       BRK
  $3301 00       BRK
  $3302 00       BRK
  $3303 00       BRK
  $3304 00       BRK
  $3305 00       BRK
  $3306 00       BRK
  $3307 00       BRK
  $3308 00       BRK
  $3309 00       BRK
  $330A 00       BRK
  $330B 00       BRK
  $330C 00       BRK
  $330D 00       BRK
  $330E 00       BRK
  $330F 00       BRK
  $3310 00       BRK
  $3311 00       BRK
  $3312 00       BRK
  $3313 00       BRK
  $3314 00       BRK
  $3315 00       BRK
  $3316 00       BRK
  $3317 00       BRK
  $3318 00       BRK
  $3319 00       BRK
  $331A 00       BRK
  $331B 00       BRK
  $331C 00       BRK
  $331D 00       BRK
image: ; final BYTE ARRAY
  $331E 1D 30 FF ORA $FF30,X
  $3321 00       BRK
  $3322 00       BRK
  $3323 00       BRK
  $3324 00       BRK
  $3325 00       BRK
  $3326 00       BRK
  $3327 00       BRK
  $3328 00       BRK
  $3329 00       BRK
  $332A 00       BRK
  $332B 00       BRK
  $332C 00       BRK
  $332D 00       BRK
  $332E 00       BRK
  $332F 00       BRK
  $3330 00       BRK
  $3331 00       BRK
  $3332 00       BRK
  $3333 00       BRK
  $3334 00       BRK
  $3335 00       BRK
  $3336 00       BRK
  $3337 00       BRK
  $3338 00       BRK
  $3339 00       BRK
  $333A 00       BRK
  $333B 00       BRK
  $333C 00       BRK
  $333D 00       BRK
  $333E 00       BRK
  $333F 00       BRK
  $3340 00       BRK
  $3341 00       BRK
  $3342 00       BRK
  $3343 00       BRK
  $3344 00       BRK
  $3345 00       BRK
  $3346 00       BRK
  $3347 00       BRK
  $3348 00       BRK
  $3349 00       BRK
  $334A 00       BRK
  $334B 00       BRK
  $334C 00       BRK
  $334D 00       BRK
  $334E 00       BRK
  $334F 00       BRK
  $3350 00       BRK
  $3351 00       BRK
  $3352 00       BRK
  $3353 00       BRK
  $3354 00       BRK
  $3355 00       BRK
  $3356 00       BRK
  $3357 00       BRK
  $3358 00       BRK
  $3359 00       BRK
  $335A 00       BRK
  $335B 00       BRK
  $335C 00       BRK
  $335D 00       BRK
  $335E 00       BRK
  $335F 00       BRK
  $3360 00       BRK
  $3361 00       BRK
  $3362 00       BRK
  $3363 00       BRK
  $3364 00       BRK
  $3365 00       BRK
  $3366 00       BRK
  $3367 00       BRK
  $3368 00       BRK
  $3369 00       BRK
  $336A 00       BRK
  $336B 00       BRK
  $336C 00       BRK
  $336D 00       BRK
  $336E 00       BRK
  $336F 00       BRK
  $3370 00       BRK
  $3371 00       BRK
  $3372 00       BRK
  $3373 00       BRK
  $3374 00       BRK
  $3375 00       BRK
  $3376 00       BRK
  $3377 00       BRK
  $3378 00       BRK
  $3379 00       BRK
  $337A 00       BRK
  $337B 00       BRK
  $337C 00       BRK
  $337D 00       BRK
  $337E 00       BRK
  $337F 00       BRK
  $3380 00       BRK
  $3381 00       BRK
  $3382 00       BRK
  $3383 00       BRK
  $3384 00       BRK
  $3385 00       BRK
  $3386 00       BRK
  $3387 00       BRK
  $3388 00       BRK
  $3389 00       BRK
  $338A 00       BRK
  $338B 00       BRK
  $338C 00       BRK
  $338D 00       BRK
  $338E 00       BRK
  $338F 00       BRK
  $3390 00       BRK
  $3391 00       BRK
  $3392 00       BRK
  $3393 00       BRK
  $3394 00       BRK
  $3395 00       BRK
  $3396 00       BRK
  $3397 00       BRK
  $3398 00       BRK
  $3399 00       BRK
  $339A 00       BRK
  $339B 00       BRK
  $339C 00       BRK
  $339D 00       BRK
  $339E 00       BRK
  $339F 00       BRK
  $33A0 00       BRK
  $33A1 00       BRK
  $33A2 00       BRK
  $33A3 00       BRK
  $33A4 00       BRK
  $33A5 00       BRK
  $33A6 00       BRK
  $33A7 00       BRK
  $33A8 00       BRK
  $33A9 00       BRK
  $33AA 00       BRK
  $33AB 00       BRK
  $33AC 00       BRK
  $33AD 00       BRK
  $33AE 00       BRK
  $33AF 00       BRK
  $33B0 00       BRK
  $33B1 00       BRK
  $33B2 00       BRK
  $33B3 00       BRK
  $33B4 00       BRK
  $33B5 00       BRK
  $33B6 00       BRK
  $33B7 00       BRK
  $33B8 00       BRK
  $33B9 00       BRK
  $33BA 00       BRK
  $33BB 00       BRK
  $33BC 00       BRK
  $33BD 00       BRK
  $33BE 00       BRK
  $33BF 00       BRK
  $33C0 00       BRK
  $33C1 00       BRK
  $33C2 00       BRK
  $33C3 00       BRK
  $33C4 00       BRK
  $33C5 00       BRK
  $33C6 00       BRK
  $33C7 00       BRK
  $33C8 00       BRK
  $33C9 00       BRK
  $33CA 00       BRK
  $33CB 00       BRK
  $33CC 00       BRK
  $33CD 00       BRK
  $33CE 00       BRK
  $33CF 00       BRK
  $33D0 00       BRK
  $33D1 00       BRK
  $33D2 00       BRK
  $33D3 00       BRK
  $33D4 00       BRK
  $33D5 00       BRK
  $33D6 00       BRK
  $33D7 00       BRK
  $33D8 00       BRK
  $33D9 00       BRK
  $33DA 00       BRK
  $33DB 00       BRK
  $33DC 00       BRK
  $33DD 00       BRK
  $33DE 00       BRK
  $33DF 00       BRK
  $33E0 00       BRK
  $33E1 00       BRK
  $33E2 00       BRK
  $33E3 00       BRK
  $33E4 00       BRK
  $33E5 00       BRK
  $33E6 00       BRK
  $33E7 00       BRK
  $33E8 00       BRK
  $33E9 00       BRK
  $33EA 00       BRK
  $33EB 00       BRK
  $33EC 00       BRK
  $33ED 00       BRK
  $33EE 00       BRK
  $33EF 00       BRK
  $33F0 00       BRK
  $33F1 00       BRK
  $33F2 00       BRK
  $33F3 00       BRK
  $33F4 00       BRK
  $33F5 00       BRK
  $33F6 00       BRK
  $33F7 00       BRK
  $33F8 00       BRK
  $33F9 00       BRK
  $33FA 00       BRK
  $33FB 00       BRK
  $33FC 00       BRK
  $33FD 00       BRK
  $33FE 00       BRK
  $33FF 00       BRK
  $3400 00       BRK
  $3401 00       BRK
  $3402 00       BRK
  $3403 00       BRK
  $3404 00       BRK
  $3405 00       BRK
  $3406 00       BRK
  $3407 00       BRK
  $3408 00       BRK
  $3409 00       BRK
  $340A 00       BRK
  $340B 00       BRK
  $340C 00       BRK
  $340D 00       BRK
  $340E 00       BRK
  $340F 00       BRK
  $3410 00       BRK
  $3411 00       BRK
  $3412 00       BRK
  $3413 00       BRK
  $3414 00       BRK
  $3415 00       BRK
  $3416 00       BRK
  $3417 00       BRK
  $3418 00       BRK
  $3419 00       BRK
  $341A 00       BRK
  $341B 00       BRK
  $341C 00       BRK
havegem: ; final BYTE ARRAY
  $341D 1D 30 04 ORA $0430,X
  $3420 00       BRK
charset: ; final BYTE ARRAY
  $3421 3B       .BYTE $3B
  $3422 58       CLI
  $3423 00       BRK
  $3424 08       PHP
x: ; final BYTE ARRAY
  $3425 21 34    AND ($34,X)
  $3427 FF       .BYTE $FF
  $3428 00       BRK
  $3429 00       BRK
  $342A 00       BRK
  $342B 00       BRK
  $342C 00       BRK
  $342D 00       BRK
  $342E 00       BRK
  $342F 00       BRK
  $3430 00       BRK
  $3431 00       BRK
  $3432 00       BRK
  $3433 00       BRK
  $3434 00       BRK
  $3435 00       BRK
  $3436 00       BRK
  $3437 00       BRK
  $3438 00       BRK
  $3439 00       BRK
  $343A 00       BRK
  $343B 00       BRK
  $343C 00       BRK
  $343D 00       BRK
  $343E 00       BRK
  $343F 00       BRK
  $3440 00       BRK
  $3441 00       BRK
  $3442 00       BRK
  $3443 00       BRK
  $3444 00       BRK
  $3445 00       BRK
  $3446 00       BRK
  $3447 00       BRK
  $3448 00       BRK
  $3449 00       BRK
  $344A 00       BRK
  $344B 00       BRK
  $344C 00       BRK
  $344D 00       BRK
  $344E 00       BRK
  $344F 00       BRK
  $3450 00       BRK
  $3451 00       BRK
  $3452 00       BRK
  $3453 00       BRK
  $3454 00       BRK
  $3455 00       BRK
  $3456 00       BRK
  $3457 00       BRK
  $3458 00       BRK
  $3459 00       BRK
  $345A 00       BRK
  $345B 00       BRK
  $345C 00       BRK
  $345D 00       BRK
  $345E 00       BRK
  $345F 00       BRK
  $3460 00       BRK
  $3461 00       BRK
  $3462 00       BRK
  $3463 00       BRK
  $3464 00       BRK
  $3465 00       BRK
  $3466 00       BRK
  $3467 00       BRK
  $3468 00       BRK
  $3469 00       BRK
  $346A 00       BRK
  $346B 00       BRK
  $346C 00       BRK
  $346D 00       BRK
  $346E 00       BRK
  $346F 00       BRK
  $3470 00       BRK
  $3471 00       BRK
  $3472 00       BRK
  $3473 00       BRK
  $3474 00       BRK
  $3475 00       BRK
  $3476 00       BRK
  $3477 00       BRK
  $3478 00       BRK
  $3479 00       BRK
  $347A 00       BRK
  $347B 00       BRK
  $347C 00       BRK
  $347D 00       BRK
  $347E 00       BRK
  $347F 00       BRK
  $3480 00       BRK
  $3481 00       BRK
  $3482 00       BRK
  $3483 00       BRK
  $3484 00       BRK
  $3485 00       BRK
  $3486 00       BRK
  $3487 00       BRK
  $3488 00       BRK
  $3489 00       BRK
  $348A 00       BRK
  $348B 00       BRK
  $348C 00       BRK
  $348D 00       BRK
  $348E 00       BRK
  $348F 00       BRK
  $3490 00       BRK
  $3491 00       BRK
  $3492 00       BRK
  $3493 00       BRK
  $3494 00       BRK
  $3495 00       BRK
  $3496 00       BRK
  $3497 00       BRK
  $3498 00       BRK
  $3499 00       BRK
  $349A 00       BRK
  $349B 00       BRK
  $349C 00       BRK
  $349D 00       BRK
  $349E 00       BRK
  $349F 00       BRK
  $34A0 00       BRK
  $34A1 00       BRK
  $34A2 00       BRK
  $34A3 00       BRK
  $34A4 00       BRK
  $34A5 00       BRK
  $34A6 00       BRK
  $34A7 00       BRK
  $34A8 00       BRK
  $34A9 00       BRK
  $34AA 00       BRK
  $34AB 00       BRK
  $34AC 00       BRK
  $34AD 00       BRK
  $34AE 00       BRK
  $34AF 00       BRK
  $34B0 00       BRK
  $34B1 00       BRK
  $34B2 00       BRK
  $34B3 00       BRK
  $34B4 00       BRK
  $34B5 00       BRK
  $34B6 00       BRK
  $34B7 00       BRK
  $34B8 00       BRK
  $34B9 00       BRK
  $34BA 00       BRK
  $34BB 00       BRK
  $34BC 00       BRK
  $34BD 00       BRK
  $34BE 00       BRK
  $34BF 00       BRK
  $34C0 00       BRK
  $34C1 00       BRK
  $34C2 00       BRK
  $34C3 00       BRK
  $34C4 00       BRK
  $34C5 00       BRK
  $34C6 00       BRK
  $34C7 00       BRK
  $34C8 00       BRK
  $34C9 00       BRK
  $34CA 00       BRK
  $34CB 00       BRK
  $34CC 00       BRK
  $34CD 00       BRK
  $34CE 00       BRK
  $34CF 00       BRK
  $34D0 00       BRK
  $34D1 00       BRK
  $34D2 00       BRK
  $34D3 00       BRK
  $34D4 00       BRK
  $34D5 00       BRK
  $34D6 00       BRK
  $34D7 00       BRK
  $34D8 00       BRK
  $34D9 00       BRK
  $34DA 00       BRK
  $34DB 00       BRK
  $34DC 00       BRK
  $34DD 00       BRK
  $34DE 00       BRK
  $34DF 00       BRK
  $34E0 00       BRK
  $34E1 00       BRK
  $34E2 00       BRK
  $34E3 00       BRK
  $34E4 00       BRK
  $34E5 00       BRK
  $34E6 00       BRK
  $34E7 00       BRK
  $34E8 00       BRK
  $34E9 00       BRK
  $34EA 00       BRK
  $34EB 00       BRK
  $34EC 00       BRK
  $34ED 00       BRK
  $34EE 00       BRK
  $34EF 00       BRK
  $34F0 00       BRK
  $34F1 00       BRK
  $34F2 00       BRK
  $34F3 00       BRK
  $34F4 00       BRK
  $34F5 00       BRK
  $34F6 00       BRK
  $34F7 00       BRK
  $34F8 00       BRK
  $34F9 00       BRK
  $34FA 00       BRK
  $34FB 00       BRK
  $34FC 00       BRK
  $34FD 00       BRK
  $34FE 00       BRK
  $34FF 00       BRK
  $3500 00       BRK
  $3501 00       BRK
  $3502 00       BRK
  $3503 00       BRK
  $3504 00       BRK
  $3505 00       BRK
  $3506 00       BRK
  $3507 00       BRK
  $3508 00       BRK
  $3509 00       BRK
  $350A 00       BRK
  $350B 00       BRK
  $350C 00       BRK
  $350D 00       BRK
  $350E 00       BRK
  $350F 00       BRK
  $3510 00       BRK
  $3511 00       BRK
  $3512 00       BRK
  $3513 00       BRK
  $3514 00       BRK
  $3515 00       BRK
  $3516 00       BRK
  $3517 00       BRK
  $3518 00       BRK
  $3519 00       BRK
  $351A 00       BRK
  $351B 00       BRK
  $351C 00       BRK
  $351D 00       BRK
  $351E 00       BRK
  $351F 00       BRK
  $3520 00       BRK
  $3521 00       BRK
  $3522 00       BRK
  $3523 00       BRK
y: ; final BYTE ARRAY
  $3524 21 34    AND ($34,X)
  $3526 FF       .BYTE $FF
  $3527 00       BRK
  $3528 00       BRK
  $3529 00       BRK
  $352A 00       BRK
  $352B 00       BRK
  $352C 00       BRK
  $352D 00       BRK
  $352E 00       BRK
  $352F 00       BRK
  $3530 00       BRK
  $3531 00       BRK
  $3532 00       BRK
  $3533 00       BRK
  $3534 00       BRK
  $3535 00       BRK
  $3536 00       BRK
  $3537 00       BRK
  $3538 00       BRK
  $3539 00       BRK
  $353A 00       BRK
  $353B 00       BRK
  $353C 00       BRK
  $353D 00       BRK
  $353E 00       BRK
  $353F 00       BRK
  $3540 00       BRK
  $3541 00       BRK
  $3542 00       BRK
  $3543 00       BRK
  $3544 00       BRK
  $3545 00       BRK
  $3546 00       BRK
  $3547 00       BRK
  $3548 00       BRK
  $3549 00       BRK
  $354A 00       BRK
  $354B 00       BRK
  $354C 00       BRK
  $354D 00       BRK
  $354E 00       BRK
  $354F 00       BRK
  $3550 00       BRK
  $3551 00       BRK
  $3552 00       BRK
  $3553 00       BRK
  $3554 00       BRK
  $3555 00       BRK
  $3556 00       BRK
  $3557 00       BRK
  $3558 00       BRK
  $3559 00       BRK
  $355A 00       BRK
  $355B 00       BRK
  $355C 00       BRK
  $355D 00       BRK
  $355E 00       BRK
  $355F 00       BRK
  $3560 00       BRK
  $3561 00       BRK
  $3562 00       BRK
  $3563 00       BRK
  $3564 00       BRK
  $3565 00       BRK
  $3566 00       BRK
  $3567 00       BRK
  $3568 00       BRK
  $3569 00       BRK
  $356A 00       BRK
  $356B 00       BRK
  $356C 00       BRK
  $356D 00       BRK
  $356E 00       BRK
  $356F 00       BRK
  $3570 00       BRK
  $3571 00       BRK
  $3572 00       BRK
  $3573 00       BRK
  $3574 00       BRK
  $3575 00       BRK
  $3576 00       BRK
  $3577 00       BRK
  $3578 00       BRK
  $3579 00       BRK
  $357A 00       BRK
  $357B 00       BRK
  $357C 00       BRK
  $357D 00       BRK
  $357E 00       BRK
  $357F 00       BRK
  $3580 00       BRK
  $3581 00       BRK
  $3582 00       BRK
  $3583 00       BRK
  $3584 00       BRK
  $3585 00       BRK
  $3586 00       BRK
  $3587 00       BRK
  $3588 00       BRK
  $3589 00       BRK
  $358A 00       BRK
  $358B 00       BRK
  $358C 00       BRK
  $358D 00       BRK
  $358E 00       BRK
  $358F 00       BRK
  $3590 00       BRK
  $3591 00       BRK
  $3592 00       BRK
  $3593 00       BRK
  $3594 00       BRK
  $3595 00       BRK
  $3596 00       BRK
  $3597 00       BRK
  $3598 00       BRK
  $3599 00       BRK
  $359A 00       BRK
  $359B 00       BRK
  $359C 00       BRK
  $359D 00       BRK
  $359E 00       BRK
  $359F 00       BRK
  $35A0 00       BRK
  $35A1 00       BRK
  $35A2 00       BRK
  $35A3 00       BRK
  $35A4 00       BRK
  $35A5 00       BRK
  $35A6 00       BRK
  $35A7 00       BRK
  $35A8 00       BRK
  $35A9 00       BRK
  $35AA 00       BRK
  $35AB 00       BRK
  $35AC 00       BRK
  $35AD 00       BRK
  $35AE 00       BRK
  $35AF 00       BRK
  $35B0 00       BRK
  $35B1 00       BRK
  $35B2 00       BRK
  $35B3 00       BRK
  $35B4 00       BRK
  $35B5 00       BRK
  $35B6 00       BRK
  $35B7 00       BRK
  $35B8 00       BRK
  $35B9 00       BRK
  $35BA 00       BRK
  $35BB 00       BRK
  $35BC 00       BRK
  $35BD 00       BRK
  $35BE 00       BRK
  $35BF 00       BRK
  $35C0 00       BRK
  $35C1 00       BRK
  $35C2 00       BRK
  $35C3 00       BRK
  $35C4 00       BRK
  $35C5 00       BRK
  $35C6 00       BRK
  $35C7 00       BRK
  $35C8 00       BRK
  $35C9 00       BRK
  $35CA 00       BRK
  $35CB 00       BRK
  $35CC 00       BRK
  $35CD 00       BRK
  $35CE 00       BRK
  $35CF 00       BRK
  $35D0 00       BRK
  $35D1 00       BRK
  $35D2 00       BRK
  $35D3 00       BRK
  $35D4 00       BRK
  $35D5 00       BRK
  $35D6 00       BRK
  $35D7 00       BRK
  $35D8 00       BRK
  $35D9 00       BRK
  $35DA 00       BRK
  $35DB 00       BRK
  $35DC 00       BRK
  $35DD 00       BRK
  $35DE 00       BRK
  $35DF 00       BRK
  $35E0 00       BRK
  $35E1 00       BRK
  $35E2 00       BRK
  $35E3 00       BRK
  $35E4 00       BRK
  $35E5 00       BRK
  $35E6 00       BRK
  $35E7 00       BRK
  $35E8 00       BRK
  $35E9 00       BRK
  $35EA 00       BRK
  $35EB 00       BRK
  $35EC 00       BRK
  $35ED 00       BRK
  $35EE 00       BRK
  $35EF 00       BRK
  $35F0 00       BRK
  $35F1 00       BRK
  $35F2 00       BRK
  $35F3 00       BRK
  $35F4 00       BRK
  $35F5 00       BRK
  $35F6 00       BRK
  $35F7 00       BRK
  $35F8 00       BRK
  $35F9 00       BRK
  $35FA 00       BRK
  $35FB 00       BRK
  $35FC 00       BRK
  $35FD 00       BRK
  $35FE 00       BRK
  $35FF 00       BRK
  $3600 00       BRK
  $3601 00       BRK
  $3602 00       BRK
  $3603 00       BRK
  $3604 00       BRK
  $3605 00       BRK
  $3606 00       BRK
  $3607 00       BRK
  $3608 00       BRK
  $3609 00       BRK
  $360A 00       BRK
  $360B 00       BRK
  $360C 00       BRK
  $360D 00       BRK
  $360E 00       BRK
  $360F 00       BRK
  $3610 00       BRK
  $3611 00       BRK
  $3612 00       BRK
  $3613 00       BRK
  $3614 00       BRK
  $3615 00       BRK
  $3616 00       BRK
  $3617 00       BRK
  $3618 00       BRK
  $3619 00       BRK
  $361A 00       BRK
  $361B 00       BRK
  $361C 00       BRK
  $361D 00       BRK
  $361E 00       BRK
  $361F 00       BRK
  $3620 00       BRK
  $3621 00       BRK
  $3622 00       BRK
bx: ; final BYTE ARRAY
  $3623 21 34    AND ($34,X)
  $3625 FF       .BYTE $FF
  $3626 00       BRK
  $3627 00       BRK
  $3628 00       BRK
  $3629 00       BRK
  $362A 00       BRK
  $362B 00       BRK
  $362C 00       BRK
  $362D 00       BRK
  $362E 00       BRK
  $362F 00       BRK
  $3630 00       BRK
  $3631 00       BRK
  $3632 00       BRK
  $3633 00       BRK
  $3634 00       BRK
  $3635 00       BRK
  $3636 00       BRK
  $3637 00       BRK
  $3638 00       BRK
  $3639 00       BRK
  $363A 00       BRK
  $363B 00       BRK
  $363C 00       BRK
  $363D 00       BRK
  $363E 00       BRK
  $363F 00       BRK
  $3640 00       BRK
  $3641 00       BRK
  $3642 00       BRK
  $3643 00       BRK
  $3644 00       BRK
  $3645 00       BRK
  $3646 00       BRK
  $3647 00       BRK
  $3648 00       BRK
  $3649 00       BRK
  $364A 00       BRK
  $364B 00       BRK
  $364C 00       BRK
  $364D 00       BRK
  $364E 00       BRK
  $364F 00       BRK
  $3650 00       BRK
  $3651 00       BRK
  $3652 00       BRK
  $3653 00       BRK
  $3654 00       BRK
  $3655 00       BRK
  $3656 00       BRK
  $3657 00       BRK
  $3658 00       BRK
  $3659 00       BRK
  $365A 00       BRK
  $365B 00       BRK
  $365C 00       BRK
  $365D 00       BRK
  $365E 00       BRK
  $365F 00       BRK
  $3660 00       BRK
  $3661 00       BRK
  $3662 00       BRK
  $3663 00       BRK
  $3664 00       BRK
  $3665 00       BRK
  $3666 00       BRK
  $3667 00       BRK
  $3668 00       BRK
  $3669 00       BRK
  $366A 00       BRK
  $366B 00       BRK
  $366C 00       BRK
  $366D 00       BRK
  $366E 00       BRK
  $366F 00       BRK
  $3670 00       BRK
  $3671 00       BRK
  $3672 00       BRK
  $3673 00       BRK
  $3674 00       BRK
  $3675 00       BRK
  $3676 00       BRK
  $3677 00       BRK
  $3678 00       BRK
  $3679 00       BRK
  $367A 00       BRK
  $367B 00       BRK
  $367C 00       BRK
  $367D 00       BRK
  $367E 00       BRK
  $367F 00       BRK
  $3680 00       BRK
  $3681 00       BRK
  $3682 00       BRK
  $3683 00       BRK
  $3684 00       BRK
  $3685 00       BRK
  $3686 00       BRK
  $3687 00       BRK
  $3688 00       BRK
  $3689 00       BRK
  $368A 00       BRK
  $368B 00       BRK
  $368C 00       BRK
  $368D 00       BRK
  $368E 00       BRK
  $368F 00       BRK
  $3690 00       BRK
  $3691 00       BRK
  $3692 00       BRK
  $3693 00       BRK
  $3694 00       BRK
  $3695 00       BRK
  $3696 00       BRK
  $3697 00       BRK
  $3698 00       BRK
  $3699 00       BRK
  $369A 00       BRK
  $369B 00       BRK
  $369C 00       BRK
  $369D 00       BRK
  $369E 00       BRK
  $369F 00       BRK
  $36A0 00       BRK
  $36A1 00       BRK
  $36A2 00       BRK
  $36A3 00       BRK
  $36A4 00       BRK
  $36A5 00       BRK
  $36A6 00       BRK
  $36A7 00       BRK
  $36A8 00       BRK
  $36A9 00       BRK
  $36AA 00       BRK
  $36AB 00       BRK
  $36AC 00       BRK
  $36AD 00       BRK
  $36AE 00       BRK
  $36AF 00       BRK
  $36B0 00       BRK
  $36B1 00       BRK
  $36B2 00       BRK
  $36B3 00       BRK
  $36B4 00       BRK
  $36B5 00       BRK
  $36B6 00       BRK
  $36B7 00       BRK
  $36B8 00       BRK
  $36B9 00       BRK
  $36BA 00       BRK
  $36BB 00       BRK
  $36BC 00       BRK
  $36BD 00       BRK
  $36BE 00       BRK
  $36BF 00       BRK
  $36C0 00       BRK
  $36C1 00       BRK
  $36C2 00       BRK
  $36C3 00       BRK
  $36C4 00       BRK
  $36C5 00       BRK
  $36C6 00       BRK
  $36C7 00       BRK
  $36C8 00       BRK
  $36C9 00       BRK
  $36CA 00       BRK
  $36CB 00       BRK
  $36CC 00       BRK
  $36CD 00       BRK
  $36CE 00       BRK
  $36CF 00       BRK
  $36D0 00       BRK
  $36D1 00       BRK
  $36D2 00       BRK
  $36D3 00       BRK
  $36D4 00       BRK
  $36D5 00       BRK
  $36D6 00       BRK
  $36D7 00       BRK
  $36D8 00       BRK
  $36D9 00       BRK
  $36DA 00       BRK
  $36DB 00       BRK
  $36DC 00       BRK
  $36DD 00       BRK
  $36DE 00       BRK
  $36DF 00       BRK
  $36E0 00       BRK
  $36E1 00       BRK
  $36E2 00       BRK
  $36E3 00       BRK
  $36E4 00       BRK
  $36E5 00       BRK
  $36E6 00       BRK
  $36E7 00       BRK
  $36E8 00       BRK
  $36E9 00       BRK
  $36EA 00       BRK
  $36EB 00       BRK
  $36EC 00       BRK
  $36ED 00       BRK
  $36EE 00       BRK
  $36EF 00       BRK
  $36F0 00       BRK
  $36F1 00       BRK
  $36F2 00       BRK
  $36F3 00       BRK
  $36F4 00       BRK
  $36F5 00       BRK
  $36F6 00       BRK
  $36F7 00       BRK
  $36F8 00       BRK
  $36F9 00       BRK
  $36FA 00       BRK
  $36FB 00       BRK
  $36FC 00       BRK
  $36FD 00       BRK
  $36FE 00       BRK
  $36FF 00       BRK
  $3700 00       BRK
  $3701 00       BRK
  $3702 00       BRK
  $3703 00       BRK
  $3704 00       BRK
  $3705 00       BRK
  $3706 00       BRK
  $3707 00       BRK
  $3708 00       BRK
  $3709 00       BRK
  $370A 00       BRK
  $370B 00       BRK
  $370C 00       BRK
  $370D 00       BRK
  $370E 00       BRK
  $370F 00       BRK
  $3710 00       BRK
  $3711 00       BRK
  $3712 00       BRK
  $3713 00       BRK
  $3714 00       BRK
  $3715 00       BRK
  $3716 00       BRK
  $3717 00       BRK
  $3718 00       BRK
  $3719 00       BRK
  $371A 00       BRK
  $371B 00       BRK
  $371C 00       BRK
  $371D 00       BRK
  $371E 00       BRK
  $371F 00       BRK
  $3720 00       BRK
  $3721 00       BRK
by: ; final BYTE ARRAY
  $3722 21 34    AND ($34,X)
  $3724 FF       .BYTE $FF
  $3725 00       BRK
  $3726 00       BRK
  $3727 00       BRK
  $3728 00       BRK
  $3729 00       BRK
  $372A 00       BRK
  $372B 00       BRK
  $372C 00       BRK
  $372D 00       BRK
  $372E 00       BRK
  $372F 00       BRK
  $3730 00       BRK
  $3731 00       BRK
  $3732 00       BRK
  $3733 00       BRK
  $3734 00       BRK
  $3735 00       BRK
  $3736 00       BRK
  $3737 00       BRK
  $3738 00       BRK
  $3739 00       BRK
  $373A 00       BRK
  $373B 00       BRK
  $373C 00       BRK
  $373D 00       BRK
  $373E 00       BRK
  $373F 00       BRK
  $3740 00       BRK
  $3741 00       BRK
  $3742 00       BRK
  $3743 00       BRK
  $3744 00       BRK
  $3745 00       BRK
  $3746 00       BRK
  $3747 00       BRK
  $3748 00       BRK
  $3749 00       BRK
  $374A 00       BRK
  $374B 00       BRK
  $374C 00       BRK
  $374D 00       BRK
  $374E 00       BRK
  $374F 00       BRK
  $3750 00       BRK
  $3751 00       BRK
  $3752 00       BRK
  $3753 00       BRK
  $3754 00       BRK
  $3755 00       BRK
  $3756 00       BRK
  $3757 00       BRK
  $3758 00       BRK
  $3759 00       BRK
  $375A 00       BRK
  $375B 00       BRK
  $375C 00       BRK
  $375D 00       BRK
  $375E 00       BRK
  $375F 00       BRK
  $3760 00       BRK
  $3761 00       BRK
  $3762 00       BRK
  $3763 00       BRK
  $3764 00       BRK
  $3765 00       BRK
  $3766 00       BRK
  $3767 00       BRK
  $3768 00       BRK
  $3769 00       BRK
  $376A 00       BRK
  $376B 00       BRK
  $376C 00       BRK
  $376D 00       BRK
  $376E 00       BRK
  $376F 00       BRK
  $3770 00       BRK
  $3771 00       BRK
  $3772 00       BRK
  $3773 00       BRK
  $3774 00       BRK
  $3775 00       BRK
  $3776 00       BRK
  $3777 00       BRK
  $3778 00       BRK
  $3779 00       BRK
  $377A 00       BRK
  $377B 00       BRK
  $377C 00       BRK
  $377D 00       BRK
  $377E 00       BRK
  $377F 00       BRK
  $3780 00       BRK
  $3781 00       BRK
  $3782 00       BRK
  $3783 00       BRK
  $3784 00       BRK
  $3785 00       BRK
  $3786 00       BRK
  $3787 00       BRK
  $3788 00       BRK
  $3789 00       BRK
  $378A 00       BRK
  $378B 00       BRK
  $378C 00       BRK
  $378D 00       BRK
  $378E 00       BRK
  $378F 00       BRK
  $3790 00       BRK
  $3791 00       BRK
  $3792 00       BRK
  $3793 00       BRK
  $3794 00       BRK
  $3795 00       BRK
  $3796 00       BRK
  $3797 00       BRK
  $3798 00       BRK
  $3799 00       BRK
  $379A 00       BRK
  $379B 00       BRK
  $379C 00       BRK
  $379D 00       BRK
  $379E 00       BRK
  $379F 00       BRK
  $37A0 00       BRK
  $37A1 00       BRK
  $37A2 00       BRK
  $37A3 00       BRK
  $37A4 00       BRK
  $37A5 00       BRK
  $37A6 00       BRK
  $37A7 00       BRK
  $37A8 00       BRK
  $37A9 00       BRK
  $37AA 00       BRK
  $37AB 00       BRK
  $37AC 00       BRK
  $37AD 00       BRK
  $37AE 00       BRK
  $37AF 00       BRK
  $37B0 00       BRK
  $37B1 00       BRK
  $37B2 00       BRK
  $37B3 00       BRK
  $37B4 00       BRK
  $37B5 00       BRK
  $37B6 00       BRK
  $37B7 00       BRK
  $37B8 00       BRK
  $37B9 00       BRK
  $37BA 00       BRK
  $37BB 00       BRK
  $37BC 00       BRK
  $37BD 00       BRK
  $37BE 00       BRK
  $37BF 00       BRK
  $37C0 00       BRK
  $37C1 00       BRK
  $37C2 00       BRK
  $37C3 00       BRK
  $37C4 00       BRK
  $37C5 00       BRK
  $37C6 00       BRK
  $37C7 00       BRK
  $37C8 00       BRK
  $37C9 00       BRK
  $37CA 00       BRK
  $37CB 00       BRK
  $37CC 00       BRK
  $37CD 00       BRK
  $37CE 00       BRK
  $37CF 00       BRK
  $37D0 00       BRK
  $37D1 00       BRK
  $37D2 00       BRK
  $37D3 00       BRK
  $37D4 00       BRK
  $37D5 00       BRK
  $37D6 00       BRK
  $37D7 00       BRK
  $37D8 00       BRK
  $37D9 00       BRK
  $37DA 00       BRK
  $37DB 00       BRK
  $37DC 00       BRK
  $37DD 00       BRK
  $37DE 00       BRK
  $37DF 00       BRK
  $37E0 00       BRK
  $37E1 00       BRK
  $37E2 00       BRK
  $37E3 00       BRK
  $37E4 00       BRK
  $37E5 00       BRK
  $37E6 00       BRK
  $37E7 00       BRK
  $37E8 00       BRK
  $37E9 00       BRK
  $37EA 00       BRK
  $37EB 00       BRK
  $37EC 00       BRK
  $37ED 00       BRK
  $37EE 00       BRK
  $37EF 00       BRK
  $37F0 00       BRK
  $37F1 00       BRK
  $37F2 00       BRK
  $37F3 00       BRK
  $37F4 00       BRK
  $37F5 00       BRK
  $37F6 00       BRK
  $37F7 00       BRK
  $37F8 00       BRK
  $37F9 00       BRK
  $37FA 00       BRK
  $37FB 00       BRK
  $37FC 00       BRK
  $37FD 00       BRK
  $37FE 00       BRK
  $37FF 00       BRK
  $3800 00       BRK
  $3801 00       BRK
  $3802 00       BRK
  $3803 00       BRK
  $3804 00       BRK
  $3805 00       BRK
  $3806 00       BRK
  $3807 00       BRK
  $3808 00       BRK
  $3809 00       BRK
  $380A 00       BRK
  $380B 00       BRK
  $380C 00       BRK
  $380D 00       BRK
  $380E 00       BRK
  $380F 00       BRK
  $3810 00       BRK
  $3811 00       BRK
  $3812 00       BRK
  $3813 00       BRK
  $3814 00       BRK
  $3815 00       BRK
  $3816 00       BRK
  $3817 00       BRK
  $3818 00       BRK
  $3819 00       BRK
  $381A 00       BRK
  $381B 00       BRK
  $381C 00       BRK
  $381D 00       BRK
  $381E 00       BRK
  $381F 00       BRK
  $3820 00       BRK
score: ; final BYTE ARRAY
  $3821 00       BRK
  $3822 00       BRK
  $3823 00       BRK
  $3824 00       BRK
xst: ; final BYTE ARRAY
  $3825 01 12    ORA ($12,X)
  $3827 01 12    ORA ($12,X)
yst: ; final BYTE ARRAY
  $3829 01 01    ORA ($01,X)
  $382B 16 16    ASL $16,X
xsc: ; final BYTE ARRAY
  $382D 01 11    ORA ($11,X)
  $382F 01 11    ORA ($11,X)
ysc: ; final BYTE ARRAY
  $3831 00       BRK
  $3832 00       BRK
  $3833 17       .BYTE $17
  $3834 17       .BYTE $17
cset: ; final CARD
  $3835 00       BRK
  $3836 00       BRK
i: ; snapshot BYTE
  $3837 00       BRK
reset: ; final PROC
  $3838 4C 3B 38 JMP $383B ; L383B
L383B:
  $383B A0 00    LDY #$00
  $383D 8C 37 38 STY $3837 ; i $3837
L3840:
  $3840 A9 03    LDA #$03
  $3842 CD 37 38 CMP $3837 ; i $3837
  $3845 B0 03    BCS $384A ; L384A
  $3847 4C 58 38 JMP $3858 ; L3858
L384A:
  $384A A9 00    LDA #$00
  $384C AE 37 38 LDX $3837 ; i $3837
  $384F 9D 21 38 STA $3821,X ; score $3821
  $3852 EE 37 38 INC $3837 ; i $3837
  $3855 4C 40 38 JMP $3840 ; L3840
L3858:
  $3858 60       RTS
p: ; snapshot CARD
  $3859 00       BRK
  $385A 00       BRK
loop: ; snapshot CARD
  $385B 00       BRK
  $385C 00       BRK
pauz: ; final PROC
  $385D 4C 60 38 JMP $3860 ; L3860
L3860:
  $3860 8E 5A 38 STX $385A ; p+1 $385A
  $3863 8D 59 38 STA $3859 ; p $3859
  $3866 A0 00    LDY #$00
  $3868 8C 5C 38 STY $385C ; loop+1 $385C
  $386B 8C 5B 38 STY $385B ; loop $385B
  $386E AD 59 38 LDA $3859 ; p $3859
  $3871 8D 8B 38 STA $388B
  $3874 AD 5A 38 LDA $385A ; p+1 $385A
  $3877 8D 8C 38 STA $388C
L387A:
  $387A AD 8B 38 LDA $388B
  $387D CD 5B 38 CMP $385B ; loop $385B
  $3880 AD 8C 38 LDA $388C
  $3883 ED 5C 38 SBC $385C ; loop+1 $385C
  $3886 B0 05    BCS $388D ; L388D
  $3888 4C 98 38 JMP $3898 ; L3898
  $388B 00       BRK
  $388C 00       BRK
L388D:
  $388D EE 5B 38 INC $385B ; loop $385B
  $3890 D0 E8    BNE $387A ; L387A
  $3892 EE 5C 38 INC $385C ; loop+1 $385C
  $3895 4C 7A 38 JMP $387A ; L387A
L3898:
  $3898 60       RTS
n: ; snapshot INT
  $3899 00       BRK
  $389A 00       BRK
sign: ; final INT FUNC
  $389B 4C 9E 38 JMP $389E ; L389E
L389E:
  $389E 8E 9A 38 STX $389A ; n+1 $389A
  $38A1 8D 99 38 STA $3899 ; n $3899
  $38A4 AD 99 38 LDA $3899 ; n $3899
  $38A7 C9 00    CMP #$00
  $38A9 AD 9A 38 LDA $389A ; n+1 $389A
  $38AC E9 00    SBC #$00
  $38AE 30 03    BMI $38B3 ; L38B3
  $38B0 4C BF 38 JMP $38BF ; L38BF
L38B3:
  $38B3 A9 FF    LDA #$FF
  $38B5 85 A1    STA $A1
  $38B7 A9 FF    LDA #$FF
  $38B9 85 A0    STA $A0
  $38BB 60       RTS
  $38BC 4C E3 38 JMP $38E3 ; scrn $38E3
L38BF:
  $38BF A9 00    LDA #$00
  $38C1 CD 99 38 CMP $3899 ; n $3899
  $38C4 A9 00    LDA #$00
  $38C6 ED 9A 38 SBC $389A ; n+1 $389A
  $38C9 30 03    BMI $38CE ; L38CE
  $38CB 4C DA 38 JMP $38DA ; L38DA
L38CE:
  $38CE A9 00    LDA #$00
  $38D0 85 A1    STA $A1
  $38D2 A9 01    LDA #$01
  $38D4 85 A0    STA $A0
  $38D6 60       RTS
  $38D7 4C E3 38 JMP $38E3 ; scrn $38E3
L38DA:
  $38DA A9 00    LDA #$00
  $38DC 85 A1    STA $A1
  $38DE A9 00    LDA #$00
  $38E0 85 A0    STA $A0
  $38E2 60       RTS
scrn: ; snapshot CARD
  $38E3 00       BRK
  $38E4 00       BRK
line: ; snapshot CARD
  $38E5 00       BRK
  $38E6 00       BRK
gr1init: ; final PROC
  $38E7 4C EA 38 JMP $38EA ; L38EA
L38EA:
  $38EA A9 11    LDA #$11
  $38EC 20 54 A6 JSR $A654 ; LA654
  $38EF A2 00    LDX #$00
  $38F1 A9 58    LDA #$58
  $38F3 20 67 A7 JSR $A767 ; LA767
  $38F6 A9 00    LDA #$00
  $38F8 8D E4 38 STA $38E4 ; scrn+1 $38E4
  $38FB A5 A0    LDA $A0
  $38FD 8D E3 38 STA $38E3 ; scrn $38E3
  $3900 A2 00    LDX #$00
  $3902 A9 59    LDA #$59
  $3904 20 67 A7 JSR $A767 ; LA767
  $3907 A9 01    LDA #$01
  $3909 85 85    STA $85
  $390B A9 00    LDA #$00
  $390D 85 84    STA $84
  $390F A5 A0    LDA $A0
  $3911 A2 00    LDX #$00
  $3913 20 00 A0 JSR $A000 ; LA000
  $3916 85 AE    STA $AE
  $3918 8A       TXA
  $3919 85 AF    STA $AF
  $391B 18       CLC
  $391C AD E3 38 LDA $38E3 ; scrn $38E3
  $391F 65 AE    ADC $AE
  $3921 8D E3 38 STA $38E3 ; scrn $38E3
  $3924 AD E4 38 LDA $38E4 ; scrn+1 $38E4
  $3927 65 AF    ADC $AF
  $3929 8D E4 38 STA $38E4 ; scrn+1 $38E4
  $392C A0 00    LDY #$00
  $392E 8C E6 38 STY $38E6 ; line+1 $38E6
  $3931 8C E5 38 STY $38E5 ; line $38E5
L3934:
  $3934 A9 17    LDA #$17
  $3936 CD E5 38 CMP $38E5 ; line $38E5
  $3939 A9 00    LDA #$00
  $393B ED E6 38 SBC $38E6 ; line+1 $38E6
  $393E B0 03    BCS $3943 ; L3943
  $3940 4C 8F 39 JMP $398F ; L398F
L3943:
  $3943 AD E5 38 LDA $38E5 ; line $38E5
  $3946 0A       ASL A
  $3947 08       PHP
  $3948 18       CLC
  $3949 6D 1D 30 ADC $301D ; linept $301D
  $394C 85 AE    STA $AE
  $394E AD E6 38 LDA $38E6 ; line+1 $38E6
  $3951 2A       ROL A
  $3952 28       PLP
  $3953 6D 1E 30 ADC $301E ; linept+1 $301E
  $3956 85 AF    STA $AF
  $3958 AD E6 38 LDA $38E6 ; line+1 $38E6
  $395B 85 85    STA $85
  $395D AD E5 38 LDA $38E5 ; line $38E5
  $3960 85 84    STA $84
  $3962 A9 14    LDA #$14
  $3964 A2 00    LDX #$00
  $3966 20 00 A0 JSR $A000 ; LA000
  $3969 85 AC    STA $AC
  $396B 8A       TXA
  $396C 85 AD    STA $AD
  $396E 18       CLC
  $396F AD E3 38 LDA $38E3 ; scrn $38E3
  $3972 65 AC    ADC $AC
  $3974 85 AA    STA $AA
  $3976 AD E4 38 LDA $38E4 ; scrn+1 $38E4
  $3979 65 AD    ADC $AD
  $397B A0 01    LDY #$01
  $397D 91 AE    STA ($AE),Y
  $397F A5 AA    LDA $AA
  $3981 88       DEY
  $3982 91 AE    STA ($AE),Y
  $3984 EE E5 38 INC $38E5 ; line $38E5
  $3987 D0 AB    BNE $3934 ; L3934
  $3989 EE E6 38 INC $38E6 ; line+1 $38E6
  $398C 4C 34 39 JMP $3934 ; L3934
L398F:
  $398F 60       RTS
i: ; snapshot BYTE
  $3990 00       BRK
b: ; snapshot BYTE
  $3991 00       BRK
foo: ; snapshot BYTE ARRAY
  $3992 00       BRK
  $3993 00       BRK
  $3994 00       BRK
  $3995 00       BRK
  $3996 00       BRK
  $3997 00       BRK
  $3998 00       BRK
  $3999 00       BRK
  $399A 7E 81 A5 ROR $A581,X
  $399D 81 A5    STA ($A5,X)
  $399F BD 81 7E LDA $7E81,X
  $39A2 C3       .BYTE $C3
  $39A3 C3       .BYTE $C3
  $39A4 81 A5    STA ($A5,X)
  $39A6 81 BD    STA ($BD,X)
  $39A8 E7       .BYTE $E7
  $39A9 3C       .BYTE $3C
  $39AA C3       .BYTE $C3
  $39AB 24 7E    BIT $7E
  $39AD DB       .BYTE $DB
  $39AE 7E 24 24 ROR $2424,X
  $39B1 E7       .BYTE $E7
  $39B2 FF       .BYTE $FF
  $39B3 DB       .BYTE $DB
  $39B4 5A       .BYTE $5A
  $39B5 7E 3C 52 ROR $523C,X
  $39B8 42       .BYTE $42
  $39B9 7E 3C 3C ROR $3C3C,X
  $39BC 18       CLC
  $39BD FF       .BYTE $FF
  $39BE 99 3C 66 STA $663C,Y
  $39C1 66 00    ROR $00
  $39C3 00       BRK
  $39C4 00       BRK
  $39C5 10 38    BPL $39FF ; L39FF
  $39C7 10 00    BPL $39C9 ; L39C9
L39C9:
  $39C9 00       BRK
  $39CA FF       .BYTE $FF
  $39CB AA       TAX
  $39CC FF       .BYTE $FF
  $39CD 55 FF    EOR $FF,X
  $39CF AA       TAX
  $39D0 FF       .BYTE $FF
  $39D1 55 91    EOR $91,X
  $39D3 89       .BYTE $89
  $39D4 33       .BYTE $33
  $39D5 AA       TAX
  $39D6 65 8A    ADC $8A
  $39D8 D1 44    CMP ($44),Y
  $39DA 11 80    ORA ($80),Y
  $39DC 30 0A    BMI $39E8 ; L39E8
  $39DE 61 8A    ADC ($8A,X)
  $39E0 90 44    BCC $3A26 ; L3A26
  $39E2 11 80    ORA ($80),Y
  $39E4 20 08 01 JSR $0108 ; L0108
  $39E7 90 00    BCC $39E9 ; L39E9
L39E9:
  $39E9 44       .BYTE $44
  $39EA 01 20    ORA ($20,X)
  $39EC 00       BRK
  $39ED 00       BRK
  $39EE 00       BRK
  $39EF 00       BRK
  $39F0 01 40    ORA ($40,X)
  $39F2 00       BRK
  $39F3 38       SEC
  $39F4 7C       .BYTE $7C
  $39F5 FE FE 7C INC $7CFE,X
  $39F8 38       SEC
  $39F9 10 4C    BPL $3A47 ; L3A47
  $39FB FD 39 A0 SBC $A039,X
  $39FE 00       BRK
L39FF:
  $39FF 8C 90 39 STY $3990 ; i $3990
L3A02:
  $3A02 A9 67    LDA #$67
  $3A04 CD 90 39 CMP $3990 ; i $3990
  $3A07 B0 03    BCS $3A0C ; L3A0C
  $3A09 4C 33 3A JMP $3A33 ; L3A33
L3A0C:
  $3A0C 18       CLC
  $3A0D AD 35 38 LDA $3835 ; cset $3835
  $3A10 6D 90 39 ADC $3990 ; i $3990
  $3A13 85 A0    STA $A0
  $3A15 AD 36 38 LDA $3836 ; cset+1 $3836
  $3A18 69 00    ADC #$00
  $3A1A 85 A1    STA $A1
  $3A1C AE 90 39 LDX $3990 ; i $3990
  $3A1F BD 92 39 LDA $3992,X ; foo $3992
  $3A22 85 A2    STA $A2
  $3A24 A4 A2    LDY $A2
L3A26:
  $3A26 A6 A1    LDX $A1
  $3A28 A5 A0    LDA $A0
  $3A2A 20 77 A7 JSR $A777 ; LA777
  $3A2D EE 90 39 INC $3990 ; i $3990
  $3A30 4C 02 3A JMP $3A02 ; L3A02
L3A33:
  $3A33 A0 00    LDY #$00
  $3A35 8C 90 39 STY $3990 ; i $3990
L3A38:
  $3A38 A9 50    LDA #$50
  $3A3A CD 90 39 CMP $3990 ; i $3990
  $3A3D B0 03    BCS $3A42 ; L3A42
  $3A3F 4C 96 3A JMP $3A96 ; L3A96
L3A42:
  $3A42 18       CLC
  $3A43 A9 00    LDA #$00
  $3A45 6D 90 39 ADC $3990 ; i $3990
  $3A48 85 AE    STA $AE
  $3A4A A9 E0    LDA #$E0
  $3A4C 69 00    ADC #$00
  $3A4E 85 AF    STA $AF
  $3A50 18       CLC
  $3A51 A5 AE    LDA $AE
  $3A53 69 80    ADC #$80
  $3A55 85 A0    STA $A0
  $3A57 A5 AF    LDA $AF
  $3A59 69 00    ADC #$00
  $3A5B 85 A1    STA $A1
  $3A5D A6 A1    LDX $A1
  $3A5F A5 A0    LDA $A0
  $3A61 20 67 A7 JSR $A767 ; LA767
  $3A64 A5 A0    LDA $A0
  $3A66 8D 91 39 STA $3991 ; b $3991
  $3A69 18       CLC
  $3A6A AD 35 38 LDA $3835 ; cset $3835
  $3A6D 6D 90 39 ADC $3990 ; i $3990
  $3A70 85 AE    STA $AE
  $3A72 AD 36 38 LDA $3836 ; cset+1 $3836
  $3A75 69 00    ADC #$00
  $3A77 85 AF    STA $AF
  $3A79 18       CLC
  $3A7A A5 AE    LDA $AE
  $3A7C 69 68    ADC #$68
  $3A7E 85 A0    STA $A0
  $3A80 A5 AF    LDA $AF
  $3A82 69 00    ADC #$00
  $3A84 85 A1    STA $A1
  $3A86 AC 91 39 LDY $3991 ; b $3991
  $3A89 A6 A1    LDX $A1
  $3A8B A5 A0    LDA $A0
  $3A8D 20 77 A7 JSR $A777 ; LA777
  $3A90 EE 90 39 INC $3990 ; i $3990
  $3A93 4C 38 3A JMP $3A38 ; L3A38
L3A96:
  $3A96 60       RTS
i: ; snapshot CARD
  $3A97 00       BRK
  $3A98 00       BRK
scrninit: ; final PROC
  $3A99 4C 9C 3A JMP $3A9C ; L3A9C
L3A9C:
  $3A9C 20 E7 38 JSR $38E7 ; gr1init $38E7
  $3A9F A0 00    LDY #$00
  $3AA1 8C 98 3A STY $3A98 ; i+1 $3A98
  $3AA4 8C 97 3A STY $3A97 ; i $3A97
L3AA7:
  $3AA7 A9 04    LDA #$04
  $3AA9 CD 97 3A CMP $3A97 ; i $3A97
  $3AAC A9 00    LDA #$00
  $3AAE ED 98 3A SBC $3A98 ; i+1 $3A98
  $3AB1 B0 03    BCS $3AB6 ; L3AB6
  $3AB3 4C CB 3A JMP $3ACB ; L3ACB
L3AB6:
  $3AB6 A0 00    LDY #$00
  $3AB8 A2 00    LDX #$00
  $3ABA AD 97 3A LDA $3A97 ; i $3A97
  $3ABD 20 CE A6 JSR $A6CE ; LA6CE
  $3AC0 EE 97 3A INC $3A97 ; i $3A97
  $3AC3 D0 E2    BNE $3AA7 ; L3AA7
  $3AC5 EE 98 3A INC $3A98 ; i+1 $3A98
  $3AC8 4C A7 3A JMP $3AA7 ; L3AA7
L3ACB:
  $3ACB 18       CLC
  $3ACC AD 21 34 LDA $3421 ; charset $3421
  $3ACF 69 FF    ADC #$FF
  $3AD1 85 AE    STA $AE
  $3AD3 AD 22 34 LDA $3422
  $3AD6 69 03    ADC #$03
  $3AD8 85 AF    STA $AF
  $3ADA A5 AE    LDA $AE
  $3ADC 29 00    AND #$00
  $3ADE 8D 35 38 STA $3835 ; cset $3835
  $3AE1 A5 AF    LDA $AF
  $3AE3 29 FC    AND #$FC
  $3AE5 8D 36 38 STA $3836 ; cset+1 $3836
  $3AE8 A0 00    LDY #$00
  $3AEA 8C 98 3A STY $3A98 ; i+1 $3A98
  $3AED 8C 97 3A STY $3A97 ; i $3A97
L3AF0:
  $3AF0 A9 FF    LDA #$FF
  $3AF2 CD 97 3A CMP $3A97 ; i $3A97
  $3AF5 A9 03    LDA #$03
  $3AF7 ED 98 3A SBC $3A98 ; i+1 $3A98
  $3AFA B0 03    BCS $3AFF ; L3AFF
  $3AFC 4C 24 3B JMP $3B24 ; L3B24
L3AFF:
  $3AFF 18       CLC
  $3B00 AD 35 38 LDA $3835 ; cset $3835
  $3B03 6D 97 3A ADC $3A97 ; i $3A97
  $3B06 85 A0    STA $A0
  $3B08 AD 36 38 LDA $3836 ; cset+1 $3836
  $3B0B 6D 98 3A ADC $3A98 ; i+1 $3A98
  $3B0E 85 A1    STA $A1
  $3B10 A0 00    LDY #$00
  $3B12 A6 A1    LDX $A1
  $3B14 A5 A0    LDA $A0
  $3B16 20 77 A7 JSR $A777 ; LA777
  $3B19 EE 97 3A INC $3A97 ; i $3A97
  $3B1C D0 D2    BNE $3AF0 ; L3AF0
  $3B1E EE 98 3A INC $3A98 ; i+1 $3A98
  $3B21 4C F0 3A JMP $3AF0 ; L3AF0
L3B24:
  $3B24 A9 01    LDA #$01
  $3B26 85 85    STA $85
  $3B28 A9 00    LDA #$00
  $3B2A 85 84    STA $84
  $3B2C AD 36 38 LDA $3836 ; cset+1 $3836
  $3B2F AA       TAX
  $3B30 AD 35 38 LDA $3835 ; cset $3835
  $3B33 20 90 A0 JSR $A090 ; LA090
  $3B36 85 A2    STA $A2
  $3B38 A4 A2    LDY $A2
  $3B3A A2 02    LDX #$02
  $3B3C A9 F4    LDA #$F4
  $3B3E 20 77 A7 JSR $A777 ; LA777
  $3B41 20 FA 39 JSR $39FA ; charpats $39FA
  $3B44 A0 08    LDY #$08
  $3B46 A2 0D    LDX #$0D
  $3B48 A9 00    LDA #$00
  $3B4A 20 CE A6 JSR $A6CE ; LA6CE
  $3B4D A0 0F    LDY #$0F
  $3B4F A2 00    LDX #$00
  $3B51 A9 01    LDA #$01
  $3B53 20 CE A6 JSR $A6CE ; LA6CE
  $3B56 A0 04    LDY #$04
  $3B58 A2 06    LDX #$06
  $3B5A A9 02    LDA #$02
  $3B5C 20 CE A6 JSR $A6CE ; LA6CE
  $3B5F A0 06    LDY #$06
  $3B61 A2 09    LDX #$09
  $3B63 A9 03    LDA #$03
  $3B65 20 CE A6 JSR $A6CE ; LA6CE
  $3B68 60       RTS
x: ; snapshot BYTE
  $3B69 00       BRK
y: ; snapshot BYTE
  $3B6A 00       BRK
col: ; snapshot BYTE
  $3B6B 00       BRK
pixel: ; snapshot BYTE ARRAY
  $3B6C 00       BRK
  $3B6D 00       BRK
plot1: ; final PROC
  $3B6E 4C 71 3B JMP $3B71 ; L3B71
L3B71:
  $3B71 20 F5 A0 JSR $A0F5 ; LA0F5
  $3B74 69 3B 02 .BYTE $69,$3B,$02
  $3B77 AD 6A 3B LDA $3B6A ; y $3B6A
  $3B7A 0A       ASL A
  $3B7B 08       PHP
  $3B7C 18       CLC
  $3B7D 6D 1D 30 ADC $301D ; linept $301D
  $3B80 85 AE    STA $AE
  $3B82 A9 00    LDA #$00
  $3B84 2A       ROL A
  $3B85 28       PLP
  $3B86 6D 1E 30 ADC $301E ; linept+1 $301E
  $3B89 85 AF    STA $AF
  $3B8B 18       CLC
  $3B8C A0 00    LDY #$00
  $3B8E B1 AE    LDA ($AE),Y
  $3B90 6D 69 3B ADC $3B69 ; x $3B69
  $3B93 8D 6C 3B STA $3B6C ; pixel $3B6C
  $3B96 C8       INY
  $3B97 B1 AE    LDA ($AE),Y
  $3B99 69 00    ADC #$00
  $3B9B 8D 6D 3B STA $3B6D
  $3B9E AD 6C 3B LDA $3B6C ; pixel $3B6C
  $3BA1 85 AE    STA $AE
  $3BA3 AD 6D 3B LDA $3B6D
  $3BA6 85 AF    STA $AF
  $3BA8 AD 6B 3B LDA $3B6B ; col $3B6B
  $3BAB 88       DEY
  $3BAC 91 AE    STA ($AE),Y
  $3BAE 60       RTS
x: ; snapshot BYTE
  $3BAF 00       BRK
y: ; snapshot BYTE
  $3BB0 00       BRK
pixel: ; snapshot BYTE ARRAY
  $3BB1 00       BRK
  $3BB2 00       BRK
locate1: ; final BYTE FUNC
  $3BB3 4C B6 3B JMP $3BB6 ; L3BB6
L3BB6:
  $3BB6 8E B0 3B STX $3BB0 ; y $3BB0
  $3BB9 8D AF 3B STA $3BAF ; x $3BAF
  $3BBC AD B0 3B LDA $3BB0 ; y $3BB0
  $3BBF 0A       ASL A
  $3BC0 08       PHP
  $3BC1 18       CLC
  $3BC2 6D 1D 30 ADC $301D ; linept $301D
  $3BC5 85 AE    STA $AE
  $3BC7 A9 00    LDA #$00
  $3BC9 2A       ROL A
  $3BCA 28       PLP
  $3BCB 6D 1E 30 ADC $301E ; linept+1 $301E
  $3BCE 85 AF    STA $AF
  $3BD0 18       CLC
  $3BD1 A0 00    LDY #$00
  $3BD3 B1 AE    LDA ($AE),Y
  $3BD5 6D AF 3B ADC $3BAF ; x $3BAF
  $3BD8 8D B1 3B STA $3BB1 ; pixel $3BB1
  $3BDB C8       INY
  $3BDC B1 AE    LDA ($AE),Y
  $3BDE 69 00    ADC #$00
  $3BE0 8D B2 3B STA $3BB2
  $3BE3 AD B1 3B LDA $3BB1 ; pixel $3BB1
  $3BE6 85 AE    STA $AE
  $3BE8 AD B2 3B LDA $3BB2
  $3BEB 85 AF    STA $AF
  $3BED 88       DEY
  $3BEE B1 AE    LDA ($AE),Y
  $3BF0 85 A0    STA $A0
  $3BF2 60       RTS
r: ; snapshot BYTE
  $3BF3 00       BRK
newdir: ; final PROC
  $3BF4 4C F7 3B JMP $3BF7 ; L3BF7
L3BF7:
  $3BF7 8D F3 3B STA $3BF3 ; r $3BF3
L3BFA:
  $3BFA AD F3 3B LDA $3BF3 ; r $3BF3
  $3BFD 0A       ASL A
  $3BFE 08       PHP
  $3BFF 18       CLC
  $3C00 6D 0D 30 ADC $300D ; xd $300D
  $3C03 85 AE    STA $AE
  $3C05 A9 00    LDA #$00
  $3C07 2A       ROL A
  $3C08 28       PLP
  $3C09 6D 0E 30 ADC $300E ; xd+1 $300E
  $3C0C 85 AF    STA $AF
  $3C0E A5 AF    LDA $AF
  $3C10 48       PHA
  $3C11 A5 AE    LDA $AE
  $3C13 48       PHA
  $3C14 A9 03    LDA #$03
  $3C16 20 F1 A6 JSR $A6F1 ; LA6F1
  $3C19 68       PLA
  $3C1A 85 AE    STA $AE
  $3C1C 68       PLA
  $3C1D 85 AF    STA $AF
  $3C1F 18       CLC
  $3C20 A5 A0    LDA $A0
  $3C22 69 FF    ADC #$FF
  $3C24 85 AC    STA $AC
  $3C26 A9 00    LDA #$00
  $3C28 69 FF    ADC #$FF
  $3C2A A0 01    LDY #$01
  $3C2C 91 AE    STA ($AE),Y
  $3C2E A5 AC    LDA $AC
  $3C30 88       DEY
  $3C31 91 AE    STA ($AE),Y
  $3C33 AD F3 3B LDA $3BF3 ; r $3BF3
  $3C36 0A       ASL A
  $3C37 08       PHP
  $3C38 18       CLC
  $3C39 6D 11 30 ADC $3011 ; yd $3011
  $3C3C 85 AE    STA $AE
  $3C3E A9 00    LDA #$00
  $3C40 2A       ROL A
  $3C41 28       PLP
  $3C42 6D 12 30 ADC $3012 ; yd+1 $3012
  $3C45 85 AF    STA $AF
  $3C47 A5 AF    LDA $AF
  $3C49 48       PHA
  $3C4A A5 AE    LDA $AE
  $3C4C 48       PHA
  $3C4D A9 03    LDA #$03
  $3C4F 20 F1 A6 JSR $A6F1 ; LA6F1
  $3C52 68       PLA
  $3C53 85 AE    STA $AE
  $3C55 68       PLA
  $3C56 85 AF    STA $AF
  $3C58 18       CLC
  $3C59 A5 A0    LDA $A0
  $3C5B 69 FF    ADC #$FF
  $3C5D 85 AC    STA $AC
  $3C5F A9 00    LDA #$00
  $3C61 69 FF    ADC #$FF
  $3C63 A0 01    LDY #$01
  $3C65 91 AE    STA ($AE),Y
  $3C67 A5 AC    LDA $AC
  $3C69 88       DEY
  $3C6A 91 AE    STA ($AE),Y
  $3C6C AD F3 3B LDA $3BF3 ; r $3BF3
  $3C6F 0A       ASL A
  $3C70 08       PHP
  $3C71 18       CLC
  $3C72 6D 0D 30 ADC $300D ; xd $300D
  $3C75 85 AE    STA $AE
  $3C77 A9 00    LDA #$00
  $3C79 2A       ROL A
  $3C7A 28       PLP
  $3C7B 6D 0E 30 ADC $300E ; xd+1 $300E
  $3C7E 85 AF    STA $AF
  $3C80 B1 AE    LDA ($AE),Y
  $3C82 C8       INY
  $3C83 11 AE    ORA ($AE),Y
  $3C85 D0 1F    BNE $3CA6 ; L3CA6
  $3C87 AD F3 3B LDA $3BF3 ; r $3BF3
  $3C8A 0A       ASL A
  $3C8B 08       PHP
  $3C8C 18       CLC
  $3C8D 6D 11 30 ADC $3011 ; yd $3011
  $3C90 85 AC    STA $AC
  $3C92 A9 00    LDA #$00
  $3C94 2A       ROL A
  $3C95 28       PLP
  $3C96 6D 12 30 ADC $3012 ; yd+1 $3012
  $3C99 85 AD    STA $AD
  $3C9B 88       DEY
  $3C9C B1 AC    LDA ($AC),Y
  $3C9E C8       INY
  $3C9F 11 AC    ORA ($AC),Y
  $3CA1 D0 03    BNE $3CA6 ; L3CA6
  $3CA3 4C FA 3B JMP $3BFA ; L3BFA
L3CA6:
  $3CA6 60       RTS
i: ; snapshot BYTE
  $3CA7 00       BRK
x: ; snapshot BYTE
  $3CA8 00       BRK
y: ; snapshot BYTE
  $3CA9 00       BRK
walls: ; final PROC
  $3CAA 4C AD 3C JMP $3CAD ; L3CAD
L3CAD:
  $3CAD A0 00    LDY #$00
  $3CAF 8C A7 3C STY $3CA7 ; i $3CA7
L3CB2:
  $3CB2 A9 13    LDA #$13
  $3CB4 CD A7 3C CMP $3CA7 ; i $3CA7
  $3CB7 B0 03    BCS $3CBC ; L3CBC
  $3CB9 4C D8 3C JMP $3CD8 ; L3CD8
L3CBC:
  $3CBC AC 03 30 LDY $3003 ; wa $3003
  $3CBF A2 00    LDX #$00
  $3CC1 AD A7 3C LDA $3CA7 ; i $3CA7
  $3CC4 20 6E 3B JSR $3B6E ; plot1 $3B6E
  $3CC7 AC 03 30 LDY $3003 ; wa $3003
  $3CCA A2 17    LDX #$17
  $3CCC AD A7 3C LDA $3CA7 ; i $3CA7
  $3CCF 20 6E 3B JSR $3B6E ; plot1 $3B6E
  $3CD2 EE A7 3C INC $3CA7 ; i $3CA7
  $3CD5 4C B2 3C JMP $3CB2 ; L3CB2
L3CD8:
  $3CD8 A0 00    LDY #$00
  $3CDA 8C A7 3C STY $3CA7 ; i $3CA7
L3CDD:
  $3CDD A9 17    LDA #$17
  $3CDF CD A7 3C CMP $3CA7 ; i $3CA7
  $3CE2 B0 03    BCS $3CE7 ; L3CE7
  $3CE4 4C 03 3D JMP $3D03 ; L3D03
L3CE7:
  $3CE7 AC 03 30 LDY $3003 ; wa $3003
  $3CEA AE A7 3C LDX $3CA7 ; i $3CA7
  $3CED A9 00    LDA #$00
  $3CEF 20 6E 3B JSR $3B6E ; plot1 $3B6E
  $3CF2 AC 03 30 LDY $3003 ; wa $3003
  $3CF5 AE A7 3C LDX $3CA7 ; i $3CA7
  $3CF8 A9 13    LDA #$13
  $3CFA 20 6E 3B JSR $3B6E ; plot1 $3B6E
  $3CFD EE A7 3C INC $3CA7 ; i $3CA7
  $3D00 4C DD 3C JMP $3CDD ; L3CDD
L3D03:
  $3D03 A0 00    LDY #$00
  $3D05 8C A7 3C STY $3CA7 ; i $3CA7
L3D08:
  $3D08 A9 1E    LDA #$1E
  $3D0A CD A7 3C CMP $3CA7 ; i $3CA7
  $3D0D B0 03    BCS $3D12 ; L3D12
  $3D0F 4C 3E 3D JMP $3D3E ; L3D3E
L3D12:
  $3D12 A9 0A    LDA #$0A
  $3D14 20 F1 A6 JSR $A6F1 ; LA6F1
  $3D17 18       CLC
  $3D18 A5 A0    LDA $A0
  $3D1A 69 05    ADC #$05
  $3D1C 8D A8 3C STA $3CA8 ; x $3CA8
  $3D1F A9 0C    LDA #$0C
  $3D21 20 F1 A6 JSR $A6F1 ; LA6F1
  $3D24 18       CLC
  $3D25 A5 A0    LDA $A0
  $3D27 69 06    ADC #$06
  $3D29 8D A9 3C STA $3CA9 ; y $3CA9
  $3D2C AC 03 30 LDY $3003 ; wa $3003
  $3D2F AE A9 3C LDX $3CA9 ; y $3CA9
  $3D32 AD A8 3C LDA $3CA8 ; x $3CA8
  $3D35 20 6E 3B JSR $3B6E ; plot1 $3B6E
  $3D38 EE A7 3C INC $3CA7 ; i $3CA7
  $3D3B 4C 08 3D JMP $3D08 ; L3D08
L3D3E:
  $3D3E A0 00    LDY #$00
  $3D40 8C A7 3C STY $3CA7 ; i $3CA7
L3D43:
  $3D43 A9 03    LDA #$03
  $3D45 CD A7 3C CMP $3CA7 ; i $3CA7
  $3D48 B0 03    BCS $3D4D ; L3D4D
  $3D4A 4C 8D 3D JMP $3D8D ; L3D8D
L3D4D:
  $3D4D AC 03 30 LDY $3003 ; wa $3003
  $3D50 AE A7 3C LDX $3CA7 ; i $3CA7
  $3D53 A9 02    LDA #$02
  $3D55 20 6E 3B JSR $3B6E ; plot1 $3B6E
  $3D58 38       SEC
  $3D59 A9 17    LDA #$17
  $3D5B ED A7 3C SBC $3CA7 ; i $3CA7
  $3D5E 85 A1    STA $A1
  $3D60 AC 03 30 LDY $3003 ; wa $3003
  $3D63 A6 A1    LDX $A1
  $3D65 A9 11    LDA #$11
  $3D67 20 6E 3B JSR $3B6E ; plot1 $3B6E
  $3D6A AC 03 30 LDY $3003 ; wa $3003
  $3D6D A2 15    LDX #$15
  $3D6F AD A7 3C LDA $3CA7 ; i $3CA7
  $3D72 20 6E 3B JSR $3B6E ; plot1 $3B6E
  $3D75 38       SEC
  $3D76 A9 13    LDA #$13
L3D78:
  $3D78 ED A7 3C SBC $3CA7 ; i $3CA7
  $3D7B 85 A0    STA $A0
  $3D7D AC 03 30 LDY $3003 ; wa $3003
  $3D80 A2 02    LDX #$02
  $3D82 A5 A0    LDA $A0
  $3D84 20 6E 3B JSR $3B6E ; plot1 $3B6E
  $3D87 EE A7 3C INC $3CA7 ; i $3CA7
  $3D8A 4C 43 3D JMP $3D43 ; L3D43
L3D8D:
  $3D8D 60       RTS
initsnd: ; final PROC
  $3D8E 4C 91 3D JMP $3D91 ; L3D91
L3D91:
  $3D91 A0 03    LDY #$03
  $3D93 A2 D2    LDX #$D2
  $3D95 A9 0F    LDA #$0F
  $3D97 20 77 A7 JSR $A777 ; LA777
  $3D9A A0 00    LDY #$00
  $3D9C A2 D2    LDX #$D2
  $3D9E A9 08    LDA #$08
  $3DA0 20 77 A7 JSR $A777 ; LA777
  $3DA3 60       RTS
plotgem: ; final PROC
  $3DA4 4C A7 3D JMP $3DA7 ; L3DA7
L3DA7:
  $3DA7 AC 05 30 LDY $3005 ; gm $3005
  $3DAA A2 0B    LDX #$0B
  $3DAC A9 09    LDA #$09
  $3DAE 20 6E 3B JSR $3B6E ; plot1 $3B6E
  $3DB1 A0 00    LDY #$00
  $3DB3 8C 07 30 STY $3007 ; gemtaken $3007
  $3DB6 60       RTS
pix: ; snapshot BYTE
  $3DB7 00       BRK
r: ; snapshot BYTE
  $3DB8 00       BRK
rinit: ; final PROC
  $3DB9 4C BC 3D JMP $3DBC ; L3DBC
L3DBC:
  $3DBC 20 AA 3C JSR $3CAA ; walls $3CAA
  $3DBF 20 A4 3D JSR $3DA4 ; plotgem $3DA4
  $3DC2 20 8E 3D JSR $3D8E ; initsnd $3D8E
  $3DC5 A0 00    LDY #$00
  $3DC7 8C B8 3D STY $3DB8 ; r $3DB8
  $3DCA 38       SEC
  $3DCB AD 08 30 LDA $3008 ; numbots $3008
  $3DCE E9 01    SBC #$01
  $3DD0 8D DE 3D STA $3DDE
L3DD3:
  $3DD3 AD DE 3D LDA $3DDE
  $3DD6 CD B8 3D CMP $3DB8 ; r $3DB8
  $3DD9 B0 04    BCS $3DDF ; L3DDF
  $3DDB 4C E3 3E JMP $3EE3 ; L3EE3
  $3DDE 00       BRK
L3DDF:
  $3DDF AD B8 3D LDA $3DB8 ; r $3DB8
  $3DE2 C9 04    CMP #$04
  $3DE4 90 03    BCC $3DE9 ; L3DE9
  $3DE6 4C 04 3E JMP $3E04 ; L3E04
L3DE9:
  $3DE9 AE B8 3D LDX $3DB8 ; r $3DB8
  $3DEC BD 25 38 LDA $3825,X ; xst $3825
  $3DEF AE B8 3D LDX $3DB8 ; r $3DB8
  $3DF2 9D 25 34 STA $3425,X ; x $3425
  $3DF5 AE B8 3D LDX $3DB8 ; r $3DB8
  $3DF8 BD 29 38 LDA $3829,X ; yst $3829
  $3DFB AE B8 3D LDX $3DB8 ; r $3DB8
  $3DFE 9D 24 35 STA $3524,X ; y $3524
  $3E01 4C 60 3E JMP $3E60 ; L3E60
L3E04:
  $3E04 A9 0A    LDA #$0A
  $3E06 20 F1 A6 JSR $A6F1 ; LA6F1
  $3E09 18       CLC
  $3E0A A5 A0    LDA $A0
  $3E0C 69 05    ADC #$05
  $3E0E AE B8 3D LDX $3DB8 ; r $3DB8
  $3E11 9D 25 34 STA $3425,X ; x $3425
  $3E14 A9 0C    LDA #$0C
  $3E16 20 F1 A6 JSR $A6F1 ; LA6F1
  $3E19 18       CLC
  $3E1A A5 A0    LDA $A0
  $3E1C 69 06    ADC #$06
  $3E1E AE B8 3D LDX $3DB8 ; r $3DB8
  $3E21 9D 24 35 STA $3524,X ; y $3524
  $3E24 AE B8 3D LDX $3DB8 ; r $3DB8
  $3E27 BD 25 34 LDA $3425,X ; x $3425
  $3E2A 85 A0    STA $A0
  $3E2C AE B8 3D LDX $3DB8 ; r $3DB8
  $3E2F BD 24 35 LDA $3524,X ; y $3524
  $3E32 85 A1    STA $A1
  $3E34 A6 A1    LDX $A1
  $3E36 A5 A0    LDA $A0
  $3E38 20 B3 3B JSR $3BB3 ; locate1 $3BB3
  $3E3B A5 A0    LDA $A0
  $3E3D 8D B7 3D STA $3DB7 ; pix $3DB7
  $3E40 AD B7 3D LDA $3DB7 ; pix $3DB7
  $3E43 4D 01 30 EOR $3001 ; bl $3001
  $3E46 F0 12    BEQ $3E5A ; L3E5A
  $3E48 18       CLC
  $3E49 A9 04    LDA #$04
  $3E4B 6D 00 30 ADC $3000 ; rb $3000
  $3E4E 85 AE    STA $AE
  $3E50 AD B7 3D LDA $3DB7 ; pix $3DB7
  $3E53 45 AE    EOR $AE
  $3E55 F0 03    BEQ $3E5A ; L3E5A
  $3E57 4C 5D 3E JMP $3E5D ; L3E5D
L3E5A:
  $3E5A 4C 60 3E JMP $3E60 ; L3E60
L3E5D:
  $3E5D 4C 04 3E JMP $3E04 ; L3E04
L3E60:
  $3E60 A9 01    LDA #$01
  $3E62 AE B8 3D LDX $3DB8 ; r $3DB8
  $3E65 9D 21 30 STA $3021,X ; alive $3021
  $3E68 AD B8 3D LDA $3DB8 ; r $3DB8
  $3E6B C9 04    CMP #$04
  $3E6D 90 03    BCC $3E72 ; L3E72
  $3E6F 4C 8A 3E JMP $3E8A ; L3E8A
L3E72:
  $3E72 18       CLC
  $3E73 AD B8 3D LDA $3DB8 ; r $3DB8
  $3E76 6D 00 30 ADC $3000 ; rb $3000
  $3E79 AE B8 3D LDX $3DB8 ; r $3DB8
  $3E7C 9D 1E 33 STA $331E,X ; image $331E
  $3E7F A9 00    LDA #$00
  $3E81 AE B8 3D LDX $3DB8 ; r $3DB8
  $3E84 9D 1D 34 STA $341D,X ; havegem $341D
  $3E87 4C 96 3E JMP $3E96 ; L3E96
L3E8A:
  $3E8A 18       CLC
  $3E8B A9 04    LDA #$04
  $3E8D 6D 00 30 ADC $3000 ; rb $3000
  $3E90 AE B8 3D LDX $3DB8 ; r $3DB8
  $3E93 9D 1E 33 STA $331E,X ; image $331E
L3E96:
  $3E96 A9 00    LDA #$00
  $3E98 AE B8 3D LDX $3DB8 ; r $3DB8
  $3E9B 9D 20 31 STA $3120,X ; expl $3120
  $3E9E A9 00    LDA #$00
  $3EA0 AE B8 3D LDX $3DB8 ; r $3DB8
  $3EA3 9D 1F 32 STA $321F,X ; fire $321F
  $3EA6 A9 00    LDA #$00
  $3EA8 AE B8 3D LDX $3DB8 ; r $3DB8
  $3EAB 9D 23 36 STA $3623,X ; bx $3623
  $3EAE A9 00    LDA #$00
  $3EB0 AE B8 3D LDX $3DB8 ; r $3DB8
  $3EB3 9D 22 37 STA $3722,X ; by $3722
  $3EB6 AE B8 3D LDX $3DB8 ; r $3DB8
  $3EB9 BD 25 34 LDA $3425,X ; x $3425
  $3EBC 85 A0    STA $A0
  $3EBE AE B8 3D LDX $3DB8 ; r $3DB8
  $3EC1 BD 24 35 LDA $3524,X ; y $3524
  $3EC4 85 A1    STA $A1
  $3EC6 AE B8 3D LDX $3DB8 ; r $3DB8
  $3EC9 BD 1E 33 LDA $331E,X ; image $331E
  $3ECC 85 A2    STA $A2
  $3ECE A4 A2    LDY $A2
  $3ED0 A6 A1    LDX $A1
  $3ED2 A5 A0    LDA $A0
  $3ED4 20 6E 3B JSR $3B6E ; plot1 $3B6E
  $3ED7 AD B8 3D LDA $3DB8 ; r $3DB8
  $3EDA 20 F4 3B JSR $3BF4 ; newdir $3BF4
  $3EDD EE B8 3D INC $3DB8 ; r $3DB8
  $3EE0 4C D3 3D JMP $3DD3 ; L3DD3
L3EE3:
  $3EE3 60       RTS
i: ; snapshot BYTE
  $3EE4 00       BRK
scores: ; final PROC
  $3EE5 4C E8 3E JMP $3EE8 ; L3EE8
L3EE8:
  $3EE8 A0 00    LDY #$00
  $3EEA 8C 0A 30 STY $300A ; winning $300A
  $3EED 8C E4 3E STY $3EE4 ; i $3EE4
L3EF0:
  $3EF0 A9 03    LDA #$03
  $3EF2 CD E4 3E CMP $3EE4 ; i $3EE4
  $3EF5 B0 03    BCS $3EFA ; L3EFA
  $3EF7 4C 93 3F JMP $3F93 ; L3F93
L3EFA:
  $3EFA A9 09    LDA #$09
  $3EFC AE E4 3E LDX $3EE4 ; i $3EE4
  $3EFF DD 21 38 CMP $3821,X ; score $3821
  $3F02 90 03    BCC $3F07 ; L3F07
  $3F04 4C 3D 3F JMP $3F3D ; L3F3D
L3F07:
  $3F07 AE E4 3E LDX $3EE4 ; i $3EE4
  $3F0A BD 2D 38 LDA $382D,X ; xsc $382D
  $3F0D 85 A0    STA $A0
  $3F0F AE E4 3E LDX $3EE4 ; i $3EE4
  $3F12 BD 31 38 LDA $3831,X ; ysc $3831
  $3F15 85 A1    STA $A1
  $3F17 A9 00    LDA #$00
  $3F19 85 85    STA $85
  $3F1B A9 0A    LDA #$0A
  $3F1D 85 84    STA $84
  $3F1F AE E4 3E LDX $3EE4 ; i $3EE4
  $3F22 BD 21 38 LDA $3821,X ; score $3821
  $3F25 A2 00    LDX #$00
  $3F27 20 90 A0 JSR $A090 ; LA090
  $3F2A 85 AE    STA $AE
  $3F2C 18       CLC
  $3F2D A5 AE    LDA $AE
  $3F2F 6D 06 30 ADC $3006 ; nm $3006
  $3F32 85 A2    STA $A2
  $3F34 A4 A2    LDY $A2
  $3F36 A6 A1    LDX $A1
  $3F38 A5 A0    LDA $A0
  $3F3A 20 6E 3B JSR $3B6E ; plot1 $3B6E
L3F3D:
  $3F3D 18       CLC
  $3F3E AE E4 3E LDX $3EE4 ; i $3EE4
  $3F41 BD 2D 38 LDA $382D,X ; xsc $382D
  $3F44 69 01    ADC #$01
  $3F46 85 A0    STA $A0
  $3F48 AE E4 3E LDX $3EE4 ; i $3EE4
  $3F4B BD 31 38 LDA $3831,X ; ysc $3831
  $3F4E 85 A1    STA $A1
  $3F50 A9 00    LDA #$00
  $3F52 85 85    STA $85
  $3F54 A9 0A    LDA #$0A
  $3F56 85 84    STA $84
  $3F58 AE E4 3E LDX $3EE4 ; i $3EE4
  $3F5B BD 21 38 LDA $3821,X ; score $3821
  $3F5E A2 00    LDX #$00
  $3F60 20 DE A0 JSR $A0DE ; LA0DE
  $3F63 85 AC    STA $AC
  $3F65 18       CLC
  $3F66 A5 AC    LDA $AC
  $3F68 6D 06 30 ADC $3006 ; nm $3006
  $3F6B 85 A2    STA $A2
  $3F6D A4 A2    LDY $A2
  $3F6F A6 A1    LDX $A1
  $3F71 A5 A0    LDA $A0
  $3F73 20 6E 3B JSR $3B6E ; plot1 $3B6E
  $3F76 AE 0A 30 LDX $300A ; winning $300A
  $3F79 BD 21 38 LDA $3821,X ; score $3821
  $3F7C AE E4 3E LDX $3EE4 ; i $3EE4
  $3F7F DD 21 38 CMP $3821,X ; score $3821
  $3F82 90 03    BCC $3F87 ; L3F87
  $3F84 4C 8D 3F JMP $3F8D ; L3F8D
L3F87:
  $3F87 AD E4 3E LDA $3EE4 ; i $3EE4
  $3F8A 8D 0A 30 STA $300A ; winning $300A
L3F8D:
  $3F8D EE E4 3E INC $3EE4 ; i $3EE4
  $3F90 4C F0 3E JMP $3EF0 ; L3EF0
L3F93:
  $3F93 60       RTS
r: ; snapshot BYTE
  $3F94 00       BRK
pix: ; snapshot BYTE
  $3F95 00       BRK
regen: ; final PROC
  $3F96 4C 99 3F JMP $3F99 ; L3F99
L3F99:
  $3F99 8D 94 3F STA $3F94 ; r $3F94
  $3F9C AD 94 3F LDA $3F94 ; r $3F94
  $3F9F F0 03    BEQ $3FA4 ; L3FA4
  $3FA1 4C B7 3F JMP $3FB7 ; L3FB7
L3FA4:
  $3FA4 A9 01    LDA #$01
  $3FA6 AE 94 3F LDX $3F94 ; r $3F94
  $3FA9 9D 25 34 STA $3425,X ; x $3425
  $3FAC A9 01    LDA #$01
  $3FAE AE 94 3F LDX $3F94 ; r $3F94
  $3FB1 9D 24 35 STA $3524,X ; y $3524
  $3FB4 4C 2E 40 JMP $402E ; L402E
L3FB7:
  $3FB7 AD 94 3F LDA $3F94 ; r $3F94
  $3FBA 49 01    EOR #$01
  $3FBC F0 03    BEQ $3FC1 ; L3FC1
  $3FBE 4C D4 3F JMP $3FD4 ; L3FD4
L3FC1:
  $3FC1 A9 12    LDA #$12
  $3FC3 AE 94 3F LDX $3F94 ; r $3F94
  $3FC6 9D 25 34 STA $3425,X ; x $3425
  $3FC9 A9 01    LDA #$01
  $3FCB AE 94 3F LDX $3F94 ; r $3F94
  $3FCE 9D 24 35 STA $3524,X ; y $3524
  $3FD1 4C 2E 40 JMP $402E ; L402E
L3FD4:
  $3FD4 AD 94 3F LDA $3F94 ; r $3F94
  $3FD7 49 02    EOR #$02
  $3FD9 F0 03    BEQ $3FDE ; L3FDE
  $3FDB 4C F1 3F JMP $3FF1 ; L3FF1
L3FDE:
  $3FDE A9 01    LDA #$01
  $3FE0 AE 94 3F LDX $3F94 ; r $3F94
  $3FE3 9D 25 34 STA $3425,X ; x $3425
  $3FE6 A9 16    LDA #$16
  $3FE8 AE 94 3F LDX $3F94 ; r $3F94
  $3FEB 9D 24 35 STA $3524,X ; y $3524
  $3FEE 4C 2E 40 JMP $402E ; L402E
L3FF1:
  $3FF1 AD 94 3F LDA $3F94 ; r $3F94
  $3FF4 49 03    EOR #$03
  $3FF6 F0 03    BEQ $3FFB ; L3FFB
  $3FF8 4C 0E 40 JMP $400E ; L400E
L3FFB:
  $3FFB A9 12    LDA #$12
  $3FFD AE 94 3F LDX $3F94 ; r $3F94
  $4000 9D 25 34 STA $3425,X ; x $3425
  $4003 A9 16    LDA #$16
  $4005 AE 94 3F LDX $3F94 ; r $3F94
  $4008 9D 24 35 STA $3524,X ; y $3524
  $400B 4C 2E 40 JMP $402E ; L402E
L400E:
  $400E A9 0E    LDA #$0E
  $4010 20 F1 A6 JSR $A6F1 ; LA6F1
  $4013 18       CLC
  $4014 A5 A0    LDA $A0
  $4016 69 03    ADC #$03
  $4018 AE 94 3F LDX $3F94 ; r $3F94
  $401B 9D 25 34 STA $3425,X ; x $3425
  $401E A9 12    LDA #$12
  $4020 20 F1 A6 JSR $A6F1 ; LA6F1
  $4023 18       CLC
  $4024 A5 A0    LDA $A0
  $4026 69 03    ADC #$03
  $4028 AE 94 3F LDX $3F94 ; r $3F94
  $402B 9D 24 35 STA $3524,X ; y $3524
L402E:
  $402E AE 94 3F LDX $3F94 ; r $3F94
  $4031 BD 25 34 LDA $3425,X ; x $3425
  $4034 85 A0    STA $A0
  $4036 AE 94 3F LDX $3F94 ; r $3F94
  $4039 BD 24 35 LDA $3524,X ; y $3524
  $403C 85 A1    STA $A1
  $403E A6 A1    LDX $A1
  $4040 A5 A0    LDA $A0
  $4042 20 B3 3B JSR $3BB3 ; locate1 $3BB3
  $4045 A5 A0    LDA $A0
  $4047 8D 95 3F STA $3F95 ; pix $3F95
  $404A AD 95 3F LDA $3F95 ; pix $3F95
  $404D 4D 01 30 EOR $3001 ; bl $3001
  $4050 F0 03    BEQ $4055 ; L4055
  $4052 4C 7E 40 JMP $407E ; L407E
L4055:
  $4055 A9 01    LDA #$01
  $4057 AE 94 3F LDX $3F94 ; r $3F94
  $405A 9D 21 30 STA $3021,X ; alive $3021
  $405D AE 94 3F LDX $3F94 ; r $3F94
  $4060 BD 25 34 LDA $3425,X ; x $3425
  $4063 85 A0    STA $A0
  $4065 AE 94 3F LDX $3F94 ; r $3F94
  $4068 BD 24 35 LDA $3524,X ; y $3524
  $406B 85 A1    STA $A1
  $406D AE 94 3F LDX $3F94 ; r $3F94
  $4070 BD 1E 33 LDA $331E,X ; image $331E
  $4073 85 A2    STA $A2
  $4075 A4 A2    LDY $A2
  $4077 A6 A1    LDX $A1
  $4079 A5 A0    LDA $A0
  $407B 20 6E 3B JSR $3B6E ; plot1 $3B6E
L407E:
  $407E 60       RTS
a: ; snapshot BYTE
  $407F 00       BRK
b: ; snapshot BYTE
  $4080 00       BRK
ad: ; snapshot INT
  $4081 00       BRK
  $4082 00       BRK
bd: ; snapshot INT
  $4083 00       BRK
  $4084 00       BRK
pix: ; snapshot BYTE
  $4085 00       BRK
ahead: ; final BYTE FUNC
  $4086 4C 89 40 JMP $4089 ; L4089
L4089:
  $4089 20 F5 A0 JSR $A0F5 ; LA0F5
  $408C 7F 40 05 .BYTE $7F,$40,$05
  $408F 18       CLC
  $4090 AD 7F 40 LDA $407F ; a $407F
  $4093 6D 81 40 ADC $4081 ; ad $4081
  $4096 85 A0    STA $A0
  $4098 18       CLC
  $4099 AD 80 40 LDA $4080 ; b $4080
  $409C 6D 83 40 ADC $4083 ; bd $4083
  $409F 85 A1    STA $A1
  $40A1 A6 A1    LDX $A1
  $40A3 A5 A0    LDA $A0
  $40A5 20 B3 3B JSR $3BB3 ; locate1 $3BB3
  $40A8 A5 A0    LDA $A0
  $40AA 8D 85 40 STA $4085 ; pix $4085
  $40AD AD 85 40 LDA $4085 ; pix $4085
  $40B0 4D 01 30 EOR $3001 ; bl $3001
  $40B3 F0 1D    BEQ $40D2 ; L40D2
  $40B5 AD 85 40 LDA $4085 ; pix $4085
  $40B8 CD 04 30 CMP $3004 ; ex $3004
  $40BB B0 03    BCS $40C0 ; L40C0
  $40BD 4C DA 40 JMP $40DA ; L40DA
L40C0:
  $40C0 18       CLC
  $40C1 AD 04 30 LDA $3004 ; ex $3004
  $40C4 69 04    ADC #$04
  $40C6 85 AE    STA $AE
  $40C8 A5 AE    LDA $AE
  $40CA CD 85 40 CMP $4085 ; pix $4085
  $40CD B0 03    BCS $40D2 ; L40D2
  $40CF 4C DA 40 JMP $40DA ; L40DA
L40D2:
  $40D2 A9 00    LDA #$00
  $40D4 85 A0    STA $A0
  $40D6 60       RTS
  $40D7 4C 70 41 JMP $4170 ; L4170
L40DA:
  $40DA AD 85 40 LDA $4085 ; pix $4085
  $40DD 4D 03 30 EOR $3003 ; wa $3003
  $40E0 F0 1D    BEQ $40FF ; L40FF
  $40E2 AD 85 40 LDA $4085 ; pix $4085
  $40E5 CD 06 30 CMP $3006 ; nm $3006
  $40E8 B0 03    BCS $40ED ; L40ED
  $40EA 4C 07 41 JMP $4107 ; L4107
L40ED:
  $40ED 18       CLC
  $40EE AD 06 30 LDA $3006 ; nm $3006
  $40F1 69 09    ADC #$09
  $40F3 85 AE    STA $AE
  $40F5 A5 AE    LDA $AE
  $40F7 CD 85 40 CMP $4085 ; pix $4085
  $40FA B0 03    BCS $40FF ; L40FF
  $40FC 4C 07 41 JMP $4107 ; L4107
L40FF:
  $40FF A9 02    LDA #$02
  $4101 85 A0    STA $A0
  $4103 60       RTS
  $4104 4C 70 41 JMP $4170 ; L4170
L4107:
  $4107 AD 85 40 LDA $4085 ; pix $4085
  $410A CD 00 30 CMP $3000 ; rb $3000
  $410D B0 03    BCS $4112 ; L4112
  $410F 4C 21 41 JMP $4121 ; L4121
L4112:
  $4112 18       CLC
  $4113 AD 00 30 LDA $3000 ; rb $3000
  $4116 69 04    ADC #$04
  $4118 85 AE    STA $AE
  $411A A5 AE    LDA $AE
  $411C CD 85 40 CMP $4085 ; pix $4085
  $411F B0 24    BCS $4145 ; L4145
L4121:
  $4121 18       CLC
  $4122 AD 00 30 LDA $3000 ; rb $3000
  $4125 69 C0    ADC #$C0
  $4127 85 AE    STA $AE
  $4129 AD 85 40 LDA $4085 ; pix $4085
  $412C C5 AE    CMP $AE
  $412E B0 03    BCS $4133 ; L4133
  $4130 4C 4D 41 JMP $414D ; L414D
L4133:
  $4133 18       CLC
  $4134 AD 00 30 LDA $3000 ; rb $3000
  $4137 69 C4    ADC #$C4
  $4139 85 AE    STA $AE
  $413B A5 AE    LDA $AE
  $413D CD 85 40 CMP $4085 ; pix $4085
  $4140 B0 03    BCS $4145 ; L4145
  $4142 4C 4D 41 JMP $414D ; L414D
L4145:
  $4145 A9 01    LDA #$01
  $4147 85 A0    STA $A0
  $4149 60       RTS
  $414A 4C 70 41 JMP $4170 ; L4170
L414D:
  $414D AD 85 40 LDA $4085 ; pix $4085
  $4150 4D 02 30 EOR $3002 ; ms $3002
  $4153 F0 03    BEQ $4158 ; L4158
  $4155 4C 60 41 JMP $4160 ; L4160
L4158:
  $4158 A9 03    LDA #$03
  $415A 85 A0    STA $A0
  $415C 60       RTS
  $415D 4C 70 41 JMP $4170 ; L4170
L4160:
  $4160 AD 85 40 LDA $4085 ; pix $4085
  $4163 4D 05 30 EOR $3005 ; gm $3005
  $4166 F0 03    BEQ $416B ; L416B
  $4168 4C 70 41 JMP $4170 ; L4170
L416B:
  $416B A9 04    LDA #$04
  $416D 85 A0    STA $A0
  $416F 60       RTS
L4170:
  $4170 4C 8E 41 JMP $418E ; L418E
  $4173 1A       .BYTE $1A
  $4174 25 45    AND $45
  $4176 43       .BYTE $43
  $4177 6F       .BYTE $6F
  $4178 6C 6C 69 JMP ($696C)
  $417B 73       .BYTE $73
  $417C 69 6F    ADC #$6F
  $417E 6E 20 65 ROR $6520
  $4181 72       .BYTE $72
  $4182 72       .BYTE $72
  $4183 6F       .BYTE $6F
  $4184 72       .BYTE $72
  $4185 3A       .BYTE $3A
  $4186 20 41 48 JSR $4841 ; L4841
  $4189 45 41    EOR $41
  $418B 44       .BYTE $44
  $418C 25 45    AND $45
L418E:
  $418E A2 41    LDX #$41
  $4190 A9 73    LDA #$73
  $4192 20 CC A3 JSR $A3CC ; LA3CC
  $4195 20 DA A7 JSR $A7DA ; LA7DA
  $4198 A9 00    LDA #$00
  $419A 85 A0    STA $A0
  $419C 60       RTS
r: ; snapshot BYTE
  $419D 00       BRK
sdir: ; snapshot BYTE ARRAY
  $419E 01 01    ORA ($01,X)
  $41A0 01 01    ORA ($01,X)
  $41A2 01 01    ORA ($01,X)
  $41A4 01 01    ORA ($01,X)
  $41A6 01 01    ORA ($01,X)
  $41A8 02       .BYTE $02
  $41A9 02       .BYTE $02
  $41AA 02       .BYTE $02
  $41AB 00       BRK
  $41AC 02       .BYTE $02
  $41AD 01 01    ORA ($01,X)
  $41AF 01 00    ORA ($00,X)
  $41B1 02       .BYTE $02
  $41B2 00       BRK
  $41B3 00       BRK
  $41B4 00       BRK
  $41B5 01 01    ORA ($01,X)
  $41B7 01 01    ORA ($01,X)
  $41B9 02       .BYTE $02
  $41BA 01 00    ORA ($00,X)
  $41BC 01 01    ORA ($01,X)
stk: ; snapshot BYTE
  $41BE 00       BRK
getdir: ; final PROC
  $41BF 4C C2 41 JMP $41C2 ; L41C2
L41C2:
  $41C2 8D 9D 41 STA $419D ; r $419D
  $41C5 AD 9D 41 LDA $419D ; r $419D
  $41C8 20 4E A7 JSR $A74E ; LA74E
  $41CB A5 A0    LDA $A0
  $41CD 8D BE 41 STA $41BE ; stk $41BE
  $41D0 AD 9D 41 LDA $419D ; r $419D
  $41D3 0A       ASL A
  $41D4 08       PHP
  $41D5 18       CLC
  $41D6 6D 0D 30 ADC $300D ; xd $300D
  $41D9 85 AE    STA $AE
  $41DB A9 00    LDA #$00
  $41DD 2A       ROL A
  $41DE 28       PLP
  $41DF 6D 0E 30 ADC $300E ; xd+1 $300E
  $41E2 85 AF    STA $AF
  $41E4 A9 00    LDA #$00
  $41E6 85 85    STA $85
  $41E8 A9 02    LDA #$02
  $41EA 85 84    STA $84
  $41EC AD BE 41 LDA $41BE ; stk $41BE
  $41EF A2 00    LDX #$00
  $41F1 20 00 A0 JSR $A000 ; LA000
  $41F4 85 AC    STA $AC
  $41F6 8A       TXA
  $41F7 85 AD    STA $AD
  $41F9 18       CLC
  $41FA A6 AC    LDX $AC
  $41FC BD 9E 41 LDA $419E,X ; sdir $419E
  $41FF 69 FF    ADC #$FF
  $4201 85 AA    STA $AA
  $4203 A9 00    LDA #$00
  $4205 69 FF    ADC #$FF
  $4207 A0 01    LDY #$01
  $4209 91 AE    STA ($AE),Y
  $420B A5 AA    LDA $AA
  $420D 88       DEY
  $420E 91 AE    STA ($AE),Y
  $4210 AD 9D 41 LDA $419D ; r $419D
  $4213 0A       ASL A
  $4214 08       PHP
  $4215 18       CLC
  $4216 6D 11 30 ADC $3011 ; yd $3011
  $4219 85 AE    STA $AE
  $421B A9 00    LDA #$00
  $421D 2A       ROL A
  $421E 28       PLP
  $421F 6D 12 30 ADC $3012 ; yd+1 $3012
  $4222 85 AF    STA $AF
  $4224 A9 00    LDA #$00
  $4226 85 85    STA $85
  $4228 A9 02    LDA #$02
  $422A 85 84    STA $84
  $422C AD BE 41 LDA $41BE ; stk $41BE
  $422F A2 00    LDX #$00
  $4231 20 00 A0 JSR $A000 ; LA000
  $4234 85 AC    STA $AC
  $4236 8A       TXA
  $4237 85 AD    STA $AD
  $4239 18       CLC
  $423A A5 AC    LDA $AC
  $423C 69 01    ADC #$01
  $423E 85 AA    STA $AA
  $4240 A5 AD    LDA $AD
  $4242 69 00    ADC #$00
  $4244 85 AB    STA $AB
  $4246 18       CLC
  $4247 A6 AA    LDX $AA
  $4249 BD 9E 41 LDA $419E,X ; sdir $419E
  $424C 69 FF    ADC #$FF
  $424E 85 AC    STA $AC
  $4250 A9 00    LDA #$00
  $4252 69 FF    ADC #$FF
  $4254 A0 01    LDY #$01
  $4256 91 AE    STA ($AE),Y
  $4258 A5 AC    LDA $AC
  $425A 88       DEY
  $425B 91 AE    STA ($AE),Y
  $425D 60       RTS
r: ; snapshot BYTE
  $425E 00       BRK
pix: ; snapshot CARD
  $425F 00       BRK
  $4260 00       BRK
explode: ; final PROC
  $4261 4C 64 42 JMP $4264 ; L4264
L4264:
  $4264 8D 5E 42 STA $425E ; r $425E
  $4267 A9 01    LDA #$01
  $4269 AE 5E 42 LDX $425E ; r $425E
  $426C DD 20 31 CMP $3120,X ; expl $3120
  $426F 90 03    BCC $4274 ; L4274
  $4271 4C C1 42 JMP $42C1 ; L42C1
L4274:
  $4274 AE 5E 42 LDX $425E ; r $425E
  $4277 BD 25 34 LDA $3425,X ; x $3425
  $427A 85 A0    STA $A0
  $427C AE 5E 42 LDX $425E ; r $425E
  $427F BD 24 35 LDA $3524,X ; y $3524
  $4282 85 A1    STA $A1
  $4284 38       SEC
  $4285 A9 05    LDA #$05
  $4287 AE 5E 42 LDX $425E ; r $425E
  $428A FD 20 31 SBC $3120,X ; expl $3120
  $428D 85 AE    STA $AE
  $428F 18       CLC
  $4290 A5 AE    LDA $AE
  $4292 6D 04 30 ADC $3004 ; ex $3004
  $4295 85 A2    STA $A2
  $4297 A4 A2    LDY $A2
  $4299 A6 A1    LDX $A1
  $429B A5 A0    LDA $A0
  $429D 20 6E 3B JSR $3B6E ; plot1 $3B6E
  $42A0 A9 00    LDA #$00
  $42A2 85 85    STA $85
  $42A4 A9 03    LDA #$03
  $42A6 85 84    STA $84
  $42A8 AE 5E 42 LDX $425E ; r $425E
  $42AB BD 20 31 LDA $3120,X ; expl $3120
  $42AE A2 00    LDX #$00
  $42B0 20 00 A0 JSR $A000 ; LA000
  $42B3 85 A3    STA $A3
  $42B5 A0 08    LDY #$08
  $42B7 A2 64    LDX #$64
  $42B9 A9 00    LDA #$00
  $42BB 20 04 A7 JSR $A704 ; LA704
  $42BE 4C E8 42 JMP $42E8 ; L42E8
L42C1:
  $42C1 AE 5E 42 LDX $425E ; r $425E
  $42C4 BD 25 34 LDA $3425,X ; x $3425
  $42C7 85 A0    STA $A0
  $42C9 AE 5E 42 LDX $425E ; r $425E
  $42CC BD 24 35 LDA $3524,X ; y $3524
  $42CF 85 A1    STA $A1
  $42D1 AC 01 30 LDY $3001 ; bl $3001
  $42D4 A6 A1    LDX $A1
  $42D6 A5 A0    LDA $A0
  $42D8 20 6E 3B JSR $3B6E ; plot1 $3B6E
  $42DB A9 00    LDA #$00
  $42DD 85 A3    STA $A3
  $42DF A0 00    LDY #$00
  $42E1 A2 00    LDX #$00
  $42E3 A9 00    LDA #$00
  $42E5 20 04 A7 JSR $A704 ; LA704
L42E8:
  $42E8 38       SEC
  $42E9 AE 5E 42 LDX $425E ; r $425E
  $42EC BD 20 31 LDA $3120,X ; expl $3120
  $42EF E9 01    SBC #$01
  $42F1 AE 5E 42 LDX $425E ; r $425E
  $42F4 9D 20 31 STA $3120,X ; expl $3120
  $42F7 60       RTS
r: ; snapshot BYTE
  $42F8 00       BRK
cease_fire: ; final PROC
  $42F9 4C FC 42 JMP $42FC ; L42FC
L42FC:
  $42FC 8D F8 42 STA $42F8 ; r $42F8
  $42FF AE F8 42 LDX $42F8 ; r $42F8
  $4302 BD 23 36 LDA $3623,X ; bx $3623
  $4305 85 A0    STA $A0
  $4307 AE F8 42 LDX $42F8 ; r $42F8
  $430A BD 22 37 LDA $3722,X ; by $3722
  $430D 85 A1    STA $A1
  $430F A6 A1    LDX $A1
  $4311 A5 A0    LDA $A0
  $4313 20 B3 3B JSR $3BB3 ; locate1 $3BB3
  $4316 A5 A0    LDA $A0
  $4318 4D 02 30 EOR $3002 ; ms $3002
  $431B F0 03    BEQ $4320 ; L4320
  $431D 4C 3A 43 JMP $433A ; L433A
L4320:
  $4320 AE F8 42 LDX $42F8 ; r $42F8
  $4323 BD 23 36 LDA $3623,X ; bx $3623
  $4326 85 A0    STA $A0
  $4328 AE F8 42 LDX $42F8 ; r $42F8
  $432B BD 22 37 LDA $3722,X ; by $3722
  $432E 85 A1    STA $A1
  $4330 AC 01 30 LDY $3001 ; bl $3001
  $4333 A6 A1    LDX $A1
  $4335 A5 A0    LDA $A0
  $4337 20 6E 3B JSR $3B6E ; plot1 $3B6E
L433A:
  $433A A9 00    LDA #$00
  $433C AE F8 42 LDX $42F8 ; r $42F8
  $433F 9D 1F 32 STA $321F,X ; fire $321F
  $4342 A9 00    LDA #$00
  $4344 85 A3    STA $A3
  $4346 A0 00    LDY #$00
  $4348 A2 00    LDX #$00
  $434A A9 01    LDA #$01
  $434C 20 04 A7 JSR $A704 ; LA704
  $434F 60       RTS
r: ; snapshot BYTE
  $4350 00       BRK
kill: ; final PROC
  $4351 4C 54 43 JMP $4354 ; L4354
L4354:
  $4354 8D 50 43 STA $4350 ; r $4350
  $4357 A9 00    LDA #$00
  $4359 AE 50 43 LDX $4350 ; r $4350
  $435C 9D 21 30 STA $3021,X ; alive $3021
  $435F A9 05    LDA #$05
  $4361 AE 50 43 LDX $4350 ; r $4350
  $4364 9D 20 31 STA $3120,X ; expl $3120
  $4367 AD 50 43 LDA $4350 ; r $4350
  $436A 20 61 42 JSR $4261 ; explode $4261
  $436D AD 50 43 LDA $4350 ; r $4350
  $4370 20 F9 42 JSR $42F9 ; cease_fire $42F9
  $4373 AD 50 43 LDA $4350 ; r $4350
  $4376 C9 04    CMP #$04
  $4378 90 03    BCC $437D ; L437D
  $437A 4C AF 43 JMP $43AF ; L43AF
L437D:
  $437D AE 50 43 LDX $4350 ; r $4350
  $4380 BD 1D 34 LDA $341D,X ; havegem $341D
  $4383 49 01    EOR #$01
  $4385 F0 03    BEQ $438A ; L438A
  $4387 4C AF 43 JMP $43AF ; L43AF
L438A:
  $438A 20 A4 3D JSR $3DA4 ; plotgem $3DA4
  $438D A9 00    LDA #$00
  $438F AE 50 43 LDX $4350 ; r $4350
  $4392 9D 1D 34 STA $341D,X ; havegem $341D
  $4395 A9 00    LDA #$00
  $4397 85 A3    STA $A3
  $4399 A0 00    LDY #$00
  $439B A2 00    LDX #$00
  $439D A9 02    LDA #$02
  $439F 20 04 A7 JSR $A704 ; LA704
  $43A2 A9 00    LDA #$00
  $43A4 85 A3    STA $A3
  $43A6 A0 00    LDY #$00
  $43A8 A2 00    LDX #$00
  $43AA A9 03    LDA #$03
  $43AC 20 04 A7 JSR $A704 ; LA704
L43AF:
  $43AF 60       RTS
a: ; snapshot BYTE
  $43B0 00       BRK
b: ; snapshot BYTE
  $43B1 00       BRK
i: ; snapshot BYTE
  $43B2 00       BRK
findr: ; final BYTE FUNC
  $43B3 4C B6 43 JMP $43B6 ; L43B6
L43B6:
  $43B6 8E B1 43 STX $43B1 ; b $43B1
  $43B9 8D B0 43 STA $43B0 ; a $43B0
  $43BC A0 00    LDY #$00
  $43BE 8C B2 43 STY $43B2 ; i $43B2
  $43C1 38       SEC
  $43C2 AD 08 30 LDA $3008 ; numbots $3008
  $43C5 E9 01    SBC #$01
  $43C7 8D D5 43 STA $43D5
L43CA:
  $43CA AD D5 43 LDA $43D5
  $43CD CD B2 43 CMP $43B2 ; i $43B2
  $43D0 B0 04    BCS $43D6 ; L43D6
  $43D2 4C 0B 44 JMP $440B ; L440B
  $43D5 00       BRK
L43D6:
  $43D6 AE B2 43 LDX $43B2 ; i $43B2
  $43D9 BD 25 34 LDA $3425,X ; x $3425
  $43DC 4D B0 43 EOR $43B0 ; a $43B0
  $43DF F0 03    BEQ $43E4 ; L43E4
  $43E1 4C 05 44 JMP $4405 ; L4405
L43E4:
  $43E4 AE B2 43 LDX $43B2 ; i $43B2
  $43E7 BD 24 35 LDA $3524,X ; y $3524
  $43EA 4D B1 43 EOR $43B1 ; b $43B1
  $43ED F0 03    BEQ $43F2 ; L43F2
  $43EF 4C 05 44 JMP $4405 ; L4405
L43F2:
  $43F2 AE B2 43 LDX $43B2 ; i $43B2
  $43F5 BD 21 30 LDA $3021,X ; alive $3021
  $43F8 49 01    EOR #$01
  $43FA F0 03    BEQ $43FF ; L43FF
  $43FC 4C 05 44 JMP $4405 ; L4405
L43FF:
  $43FF AD B2 43 LDA $43B2 ; i $43B2
  $4402 85 A0    STA $A0
  $4404 60       RTS
L4405:
  $4405 EE B2 43 INC $43B2 ; i $43B2
  $4408 4C CA 43 JMP $43CA ; L43CA
L440B:
  $440B 4C 29 44 JMP $4429 ; L4429
  $440E 1A       .BYTE $1A
  $440F 25 45    AND $45
  $4411 45 72    EOR $72
  $4413 72       .BYTE $72
  $4414 6F       .BYTE $6F
  $4415 72       .BYTE $72
  $4416 3A       .BYTE $3A
  $4417 20 66 69 JSR $6966 ; L6966
  $441A 6E 64 72 ROR $7264
  $441D 20 78 3D JSR $3D78 ; L3D78
  $4420 25 55    AND $55
  $4422 20 79 3D JSR $3D79 ; L3D79
  $4425 25 55    AND $55
  $4427 25 45    AND $45
L4429:
  $4429 A9 00    LDA #$00
  $442B 85 A3    STA $A3
  $442D A9 00    LDA #$00
  $442F 85 A5    STA $A5
  $4431 AD B1 43 LDA $43B1 ; b $43B1
  $4434 85 A4    STA $A4
  $4436 AC B0 43 LDY $43B0 ; a $43B0
  $4439 A2 44    LDX #$44
  $443B A9 0E    LDA #$0E
  $443D 20 CC A3 JSR $A3CC ; LA3CC
  $4440 20 DA A7 JSR $A7DA ; LA7DA
  $4443 A9 00    LDA #$00
  $4445 85 A0    STA $A0
  $4447 60       RTS
r: ; snapshot BYTE
  $4448 00       BRK
getgem: ; final PROC
  $4449 4C 4C 44 JMP $444C ; L444C
L444C:
  $444C 8D 48 44 STA $4448 ; r $4448
  $444F A9 01    LDA #$01
  $4451 AE 48 44 LDX $4448 ; r $4448
  $4454 9D 1D 34 STA $341D,X ; havegem $341D
  $4457 AC 01 30 LDY $3001 ; bl $3001
  $445A A2 0B    LDX #$0B
  $445C A9 09    LDA #$09
  $445E 20 6E 3B JSR $3B6E ; plot1 $3B6E
  $4461 60       RTS
r: ; snapshot BYTE
  $4462 00       BRK
qwin: ; final PROC
  $4463 4C 66 44 JMP $4466 ; L4466
L4466:
  $4466 8D 62 44 STA $4462 ; r $4462
  $4469 AE 62 44 LDX $4462 ; r $4462
  $446C BD 25 34 LDA $3425,X ; x $3425
  $446F AE 62 44 LDX $4462 ; r $4462
  $4472 5D 25 38 EOR $3825,X ; xst $3825
  $4475 F0 03    BEQ $447A ; L447A
  $4477 4C 94 44 JMP $4494 ; L4494
L447A:
  $447A AE 62 44 LDX $4462 ; r $4462
  $447D BD 24 35 LDA $3524,X ; y $3524
  $4480 AE 62 44 LDX $4462 ; r $4462
  $4483 5D 29 38 EOR $3829,X ; yst $3829
  $4486 F0 03    BEQ $448B ; L448B
  $4488 4C 94 44 JMP $4494 ; L4494
L448B:
  $448B 18       CLC
  $448C AD 62 44 LDA $4462 ; r $4462
  $448F 69 01    ADC #$01
  $4491 8D 09 30 STA $3009 ; winner $3009
L4494:
  $4494 60       RTS
r: ; snapshot BYTE
  $4495 00       BRK
drawbot: ; final PROC
  $4496 4C 99 44 JMP $4499 ; L4499
L4499:
  $4499 8D 95 44 STA $4495 ; r $4495
  $449C A9 03    LDA #$03
  $449E CD 95 44 CMP $4495 ; r $4495
  $44A1 90 03    BCC $44A6 ; L44A6
  $44A3 4C CA 44 JMP $44CA ; L44CA
L44A6:
  $44A6 AE 95 44 LDX $4495 ; r $4495
  $44A9 BD 25 34 LDA $3425,X ; x $3425
  $44AC 85 A0    STA $A0
  $44AE AE 95 44 LDX $4495 ; r $4495
  $44B1 BD 24 35 LDA $3524,X ; y $3524
  $44B4 85 A1    STA $A1
  $44B6 AE 95 44 LDX $4495 ; r $4495
  $44B9 BD 1E 33 LDA $331E,X ; image $331E
  $44BC 85 A2    STA $A2
  $44BE A4 A2    LDY $A2
  $44C0 A6 A1    LDX $A1
  $44C2 A5 A0    LDA $A0
  $44C4 20 6E 3B JSR $3B6E ; plot1 $3B6E
  $44C7 4C 25 45 JMP $4525 ; L4525
L44CA:
  $44CA AE 95 44 LDX $4495 ; r $4495
  $44CD BD 1D 34 LDA $341D,X ; havegem $341D
  $44D0 49 01    EOR #$01
  $44D2 F0 03    BEQ $44D7 ; L44D7
  $44D4 4C 04 45 JMP $4504 ; L4504
L44D7:
  $44D7 AE 95 44 LDX $4495 ; r $4495
  $44DA BD 25 34 LDA $3425,X ; x $3425
  $44DD 85 A0    STA $A0
  $44DF AE 95 44 LDX $4495 ; r $4495
  $44E2 BD 24 35 LDA $3524,X ; y $3524
  $44E5 85 A1    STA $A1
  $44E7 18       CLC
  $44E8 AE 95 44 LDX $4495 ; r $4495
  $44EB BD 1E 33 LDA $331E,X ; image $331E
  $44EE 69 C0    ADC #$C0
  $44F0 85 A2    STA $A2
  $44F2 A4 A2    LDY $A2
  $44F4 A6 A1    LDX $A1
  $44F6 A5 A0    LDA $A0
  $44F8 20 6E 3B JSR $3B6E ; plot1 $3B6E
  $44FB AD 95 44 LDA $4495 ; r $4495
  $44FE 20 63 44 JSR $4463 ; qwin $4463
  $4501 4C 25 45 JMP $4525 ; L4525
L4504:
  $4504 AE 95 44 LDX $4495 ; r $4495
  $4507 BD 25 34 LDA $3425,X ; x $3425
  $450A 85 A0    STA $A0
  $450C AE 95 44 LDX $4495 ; r $4495
  $450F BD 24 35 LDA $3524,X ; y $3524
  $4512 85 A1    STA $A1
  $4514 AE 95 44 LDX $4495 ; r $4495
  $4517 BD 1E 33 LDA $331E,X ; image $331E
  $451A 85 A2    STA $A2
  $451C A4 A2    LDY $A2
  $451E A6 A1    LDX $A1
  $4520 A5 A0    LDA $A0
  $4522 20 6E 3B JSR $3B6E ; plot1 $3B6E
L4525:
  $4525 60       RTS
r: ; snapshot BYTE
  $4526 00       BRK
targ: ; snapshot BYTE
  $4527 00       BRK
a: ; snapshot BYTE
  $4528 00       BRK
b: ; snapshot BYTE
  $4529 00       BRK
pix: ; snapshot BYTE
  $452A 00       BRK
move: ; final PROC
  $452B 4C 2E 45 JMP $452E ; L452E
L452E:
  $452E 8D 26 45 STA $4526 ; r $4526
  $4531 AD 26 45 LDA $4526 ; r $4526
  $4534 C9 04    CMP #$04
  $4536 90 03    BCC $453B ; L453B
  $4538 4C 65 45 JMP $4565 ; L4565
L453B:
  $453B AD 26 45 LDA $4526 ; r $4526
  $453E 20 BF 41 JSR $41BF ; getdir $41BF
  $4541 AD 26 45 LDA $4526 ; r $4526
  $4544 20 2F AD JSR $AD2F ; LAD2F
L4547:
  $4547 A5 A0    LDA $A0
  $4549 F0 03    BEQ $454E ; L454E
  $454B 4C 62 45 JMP $4562 ; L4562
L454E:
  $454E AE 26 45 LDX $4526 ; r $4526
  $4551 BD 1F 32 LDA $321F,X ; fire $321F
  $4554 F0 03    BEQ $4559 ; L4559
  $4556 4C 61 45 JMP $4561 ; L4561
L4559:
  $4559 A9 01    LDA #$01
  $455B AE 26 45 LDX $4526 ; r $4526
  $455E 9D 1F 32 STA $321F,X ; fire $321F
L4561:
  $4561 60       RTS
L4562:
  $4562 4C 96 45 JMP $4596 ; L4596
L4565:
  $4565 A9 00    LDA #$00
  $4567 20 F1 A6 JSR $A6F1 ; LA6F1
  $456A A5 A0    LDA $A0
  $456C C9 20    CMP #$20
  $456E 90 03    BCC $4573 ; L4573
  $4570 4C 96 45 JMP $4596 ; L4596
L4573:
  $4573 AD 26 45 LDA $4526 ; r $4526
  $4576 20 F4 3B JSR $3BF4 ; newdir $3BF4
  $4579 AD 07 30 LDA $3007 ; gemtaken $3007
  $457C 49 01    EOR #$01
  $457E F0 03    BEQ $4583 ; L4583
  $4580 4C 96 45 JMP $4596 ; L4596
L4583:
  $4583 AE 26 45 LDX $4526 ; r $4526
  $4586 BD 1F 32 LDA $321F,X ; fire $321F
  $4589 F0 03    BEQ $458E ; L458E
  $458B 4C 96 45 JMP $4596 ; L4596
L458E:
  $458E A9 01    LDA #$01
  $4590 AE 26 45 LDX $4526 ; r $4526
  $4593 9D 1F 32 STA $321F,X ; fire $321F
L4596:
  $4596 AD 26 45 LDA $4526 ; r $4526
  $4599 0A       ASL A
  $459A 08       PHP
  $459B 18       CLC
  $459C 6D 0D 30 ADC $300D ; xd $300D
  $459F 85 AE    STA $AE
  $45A1 A9 00    LDA #$00
  $45A3 2A       ROL A
  $45A4 28       PLP
  $45A5 6D 0E 30 ADC $300E ; xd+1 $300E
  $45A8 85 AF    STA $AF
  $45AA A0 00    LDY #$00
  $45AC B1 AE    LDA ($AE),Y
  $45AE C8       INY
  $45AF 11 AE    ORA ($AE),Y
  $45B1 F0 03    BEQ $45B6 ; L45B6
  $45B3 4C DC 45 JMP $45DC ; L45DC
L45B6:
  $45B6 AD 26 45 LDA $4526 ; r $4526
  $45B9 0A       ASL A
  $45BA 08       PHP
  $45BB 18       CLC
  $45BC 6D 11 30 ADC $3011 ; yd $3011
  $45BF 85 AC    STA $AC
  $45C1 A9 00    LDA #$00
  $45C3 2A       ROL A
  $45C4 28       PLP
  $45C5 6D 12 30 ADC $3012 ; yd+1 $3012
  $45C8 85 AD    STA $AD
  $45CA 88       DEY
  $45CB B1 AC    LDA ($AC),Y
  $45CD C8       INY
  $45CE 11 AC    ORA ($AC),Y
  $45D0 F0 03    BEQ $45D5 ; L45D5
  $45D2 4C DC 45 JMP $45DC ; L45DC
L45D5:
  $45D5 AD 26 45 LDA $4526 ; r $4526
  $45D8 20 96 44 JSR $4496 ; drawbot $4496
  $45DB 60       RTS
L45DC:
  $45DC AE 26 45 LDX $4526 ; r $4526
  $45DF BD 25 34 LDA $3425,X ; x $3425
  $45E2 85 A0    STA $A0
  $45E4 AE 26 45 LDX $4526 ; r $4526
  $45E7 BD 24 35 LDA $3524,X ; y $3524
  $45EA 85 A1    STA $A1
  $45EC AD 26 45 LDA $4526 ; r $4526
  $45EF 0A       ASL A
  $45F0 08       PHP
  $45F1 18       CLC
  $45F2 6D 0D 30 ADC $300D ; xd $300D
  $45F5 85 AE    STA $AE
  $45F7 A9 00    LDA #$00
  $45F9 2A       ROL A
  $45FA 28       PLP
  $45FB 6D 0E 30 ADC $300E ; xd+1 $300E
  $45FE 85 AF    STA $AF
  $4600 A0 01    LDY #$01
  $4602 B1 AE    LDA ($AE),Y
  $4604 85 A3    STA $A3
  $4606 88       DEY
  $4607 B1 AE    LDA ($AE),Y
  $4609 85 A2    STA $A2
  $460B AD 26 45 LDA $4526 ; r $4526
  $460E 0A       ASL A
  $460F 08       PHP
  $4610 18       CLC
  $4611 6D 11 30 ADC $3011 ; yd $3011
  $4614 85 AC    STA $AC
  $4616 A9 00    LDA #$00
  $4618 2A       ROL A
  $4619 28       PLP
  $461A 6D 12 30 ADC $3012 ; yd+1 $3012
  $461D 85 AD    STA $AD
  $461F C8       INY
  $4620 B1 AC    LDA ($AC),Y
  $4622 85 A5    STA $A5
  $4624 88       DEY
  $4625 B1 AC    LDA ($AC),Y
  $4627 85 A4    STA $A4
  $4629 A4 A2    LDY $A2
  $462B A6 A1    LDX $A1
  $462D A5 A0    LDA $A0
  $462F 20 86 40 JSR $4086 ; ahead $4086
  $4632 A5 A0    LDA $A0
  $4634 8D 2A 45 STA $452A ; pix $452A
  $4637 AD 2A 45 LDA $452A ; pix $452A
  $463A 49 01    EOR #$01
  $463C F0 03    BEQ $4641 ; L4641
  $463E 4C A3 46 JMP $46A3 ; L46A3
L4641:
  $4641 AD 26 45 LDA $4526 ; r $4526
  $4644 20 51 43 JSR $4351 ; kill $4351
  $4647 AD 26 45 LDA $4526 ; r $4526
  $464A 0A       ASL A
  $464B 08       PHP
  $464C 18       CLC
  $464D 6D 0D 30 ADC $300D ; xd $300D
  $4650 85 AE    STA $AE
  $4652 A9 00    LDA #$00
  $4654 2A       ROL A
  $4655 28       PLP
  $4656 6D 0E 30 ADC $300E ; xd+1 $300E
  $4659 85 AF    STA $AF
  $465B 18       CLC
  $465C AE 26 45 LDX $4526 ; r $4526
  $465F BD 25 34 LDA $3425,X ; x $3425
  $4662 A0 00    LDY #$00
  $4664 71 AE    ADC ($AE),Y
  $4666 8D 28 45 STA $4528 ; a $4528
  $4669 AD 26 45 LDA $4526 ; r $4526
  $466C 0A       ASL A
  $466D 08       PHP
  $466E 18       CLC
  $466F 6D 11 30 ADC $3011 ; yd $3011
  $4672 85 AE    STA $AE
  $4674 A9 00    LDA #$00
  $4676 2A       ROL A
  $4677 28       PLP
  $4678 6D 12 30 ADC $3012 ; yd+1 $3012
  $467B 85 AF    STA $AF
  $467D 18       CLC
  $467E AE 26 45 LDX $4526 ; r $4526
  $4681 BD 24 35 LDA $3524,X ; y $3524
  $4684 A0 00    LDY #$00
  $4686 71 AE    ADC ($AE),Y
  $4688 8D 29 45 STA $4529 ; b $4529
  $468B AE 29 45 LDX $4529 ; b $4529
  $468E AD 28 45 LDA $4528 ; a $4528
  $4691 20 B3 43 JSR $43B3 ; findr $43B3
  $4694 A5 A0    LDA $A0
  $4696 8D 27 45 STA $4527 ; targ $4527
  $4699 AD 27 45 LDA $4527 ; targ $4527
  $469C 20 51 43 JSR $4351 ; kill $4351
  $469F 60       RTS
  $46A0 4C 05 47 JMP $4705 ; L4705
L46A3:
  $46A3 AD 2A 45 LDA $452A ; pix $452A
  $46A6 49 02    EOR #$02
  $46A8 F0 14    BEQ $46BE ; L46BE
  $46AA AD 2A 45 LDA $452A ; pix $452A
  $46AD 49 04    EOR #$04
  $46AF F0 03    BEQ $46B4 ; L46B4
  $46B1 4C D2 46 JMP $46D2 ; L46D2
L46B4:
  $46B4 A9 03    LDA #$03
  $46B6 CD 26 45 CMP $4526 ; r $4526
  $46B9 90 03    BCC $46BE ; L46BE
  $46BB 4C D2 46 JMP $46D2 ; L46D2
L46BE:
  $46BE A9 03    LDA #$03
  $46C0 CD 26 45 CMP $4526 ; r $4526
  $46C3 90 03    BCC $46C8 ; L46C8
  $46C5 4C CE 46 JMP $46CE ; L46CE
L46C8:
  $46C8 AD 26 45 LDA $4526 ; r $4526
  $46CB 20 F4 3B JSR $3BF4 ; newdir $3BF4
L46CE:
  $46CE 60       RTS
  $46CF 4C 05 47 JMP $4705 ; L4705
L46D2:
  $46D2 AD 2A 45 LDA $452A ; pix $452A
  $46D5 49 03    EOR #$03
  $46D7 F0 03    BEQ $46DC ; L46DC
  $46D9 4C E6 46 JMP $46E6 ; L46E6
L46DC:
  $46DC AD 26 45 LDA $4526 ; r $4526
  $46DF 20 51 43 JSR $4351 ; kill $4351
  $46E2 60       RTS
  $46E3 4C 05 47 JMP $4705 ; L4705
L46E6:
  $46E6 AD 2A 45 LDA $452A ; pix $452A
  $46E9 49 04    EOR #$04
  $46EB F0 03    BEQ $46F0 ; L46F0
  $46ED 4C 05 47 JMP $4705 ; L4705
L46F0:
  $46F0 AD 26 45 LDA $4526 ; r $4526
  $46F3 C9 04    CMP #$04
  $46F5 90 03    BCC $46FA ; L46FA
  $46F7 4C 05 47 JMP $4705 ; L4705
L46FA:
  $46FA A0 01    LDY #$01
  $46FC 8C 07 30 STY $3007 ; gemtaken $3007
  $46FF AD 26 45 LDA $4526 ; r $4526
  $4702 20 49 44 JSR $4449 ; getgem $4449
L4705:
  $4705 AE 26 45 LDX $4526 ; r $4526
  $4708 BD 25 34 LDA $3425,X ; x $3425
  $470B 85 A0    STA $A0
  $470D AE 26 45 LDX $4526 ; r $4526
  $4710 BD 24 35 LDA $3524,X ; y $3524
  $4713 85 A1    STA $A1
  $4715 AC 01 30 LDY $3001 ; bl $3001
  $4718 A6 A1    LDX $A1
  $471A A5 A0    LDA $A0
  $471C 20 6E 3B JSR $3B6E ; plot1 $3B6E
  $471F AD 26 45 LDA $4526 ; r $4526
  $4722 0A       ASL A
  $4723 08       PHP
  $4724 18       CLC
  $4725 6D 0D 30 ADC $300D ; xd $300D
  $4728 85 AE    STA $AE
  $472A A9 00    LDA #$00
  $472C 2A       ROL A
  $472D 28       PLP
  $472E 6D 0E 30 ADC $300E ; xd+1 $300E
  $4731 85 AF    STA $AF
  $4733 18       CLC
  $4734 AE 26 45 LDX $4526 ; r $4526
  $4737 BD 25 34 LDA $3425,X ; x $3425
  $473A A0 00    LDY #$00
  $473C 71 AE    ADC ($AE),Y
  $473E AE 26 45 LDX $4526 ; r $4526
  $4741 9D 25 34 STA $3425,X ; x $3425
  $4744 AD 26 45 LDA $4526 ; r $4526
  $4747 0A       ASL A
  $4748 08       PHP
  $4749 18       CLC
  $474A 6D 11 30 ADC $3011 ; yd $3011
  $474D 85 AE    STA $AE
  $474F A9 00    LDA #$00
  $4751 2A       ROL A
  $4752 28       PLP
  $4753 6D 12 30 ADC $3012 ; yd+1 $3012
  $4756 85 AF    STA $AF
  $4758 18       CLC
  $4759 AE 26 45 LDX $4526 ; r $4526
  $475C BD 24 35 LDA $3524,X ; y $3524
  $475F A0 00    LDY #$00
  $4761 71 AE    ADC ($AE),Y
  $4763 AE 26 45 LDX $4526 ; r $4526
  $4766 9D 24 35 STA $3524,X ; y $3524
  $4769 AD 26 45 LDA $4526 ; r $4526
  $476C 20 96 44 JSR $4496 ; drawbot $4496
  $476F 60       RTS
r: ; snapshot BYTE
  $4770 00       BRK
targ: ; snapshot BYTE
  $4771 00       BRK
pix: ; snapshot BYTE
  $4772 00       BRK
initfire: ; final PROC
  $4773 4C 76 47 JMP $4776 ; L4776
L4776:
  $4776 8D 70 47 STA $4770 ; r $4770
  $4779 AD 70 47 LDA $4770 ; r $4770
  $477C 0A       ASL A
  $477D 08       PHP
  $477E 18       CLC
  $477F 6D 0D 30 ADC $300D ; xd $300D
  $4782 85 AE    STA $AE
  $4784 A9 00    LDA #$00
  $4786 2A       ROL A
  $4787 28       PLP
  $4788 6D 0E 30 ADC $300E ; xd+1 $300E
  $478B 85 AF    STA $AF
  $478D A0 00    LDY #$00
  $478F B1 AE    LDA ($AE),Y
  $4791 C8       INY
  $4792 11 AE    ORA ($AE),Y
  $4794 F0 03    BEQ $4799 ; L4799
  $4796 4C C1 47 JMP $47C1 ; L47C1
L4799:
  $4799 AD 70 47 LDA $4770 ; r $4770
  $479C 0A       ASL A
  $479D 08       PHP
  $479E 18       CLC
  $479F 6D 11 30 ADC $3011 ; yd $3011
  $47A2 85 AC    STA $AC
  $47A4 A9 00    LDA #$00
  $47A6 2A       ROL A
  $47A7 28       PLP
  $47A8 6D 12 30 ADC $3012 ; yd+1 $3012
  $47AB 85 AD    STA $AD
  $47AD 88       DEY
  $47AE B1 AC    LDA ($AC),Y
  $47B0 C8       INY
  $47B1 11 AC    ORA ($AC),Y
  $47B3 F0 03    BEQ $47B8 ; L47B8
  $47B5 4C C1 47 JMP $47C1 ; L47C1
L47B8:
  $47B8 A9 00    LDA #$00
  $47BA AE 70 47 LDX $4770 ; r $4770
  $47BD 9D 1F 32 STA $321F,X ; fire $321F
  $47C0 60       RTS
L47C1:
  $47C1 AE 70 47 LDX $4770 ; r $4770
  $47C4 BD 25 34 LDA $3425,X ; x $3425
  $47C7 AE 70 47 LDX $4770 ; r $4770
  $47CA 9D 23 36 STA $3623,X ; bx $3623
  $47CD AE 70 47 LDX $4770 ; r $4770
  $47D0 BD 24 35 LDA $3524,X ; y $3524
  $47D3 AE 70 47 LDX $4770 ; r $4770
  $47D6 9D 22 37 STA $3722,X ; by $3722
  $47D9 AD 70 47 LDA $4770 ; r $4770
  $47DC 0A       ASL A
  $47DD 08       PHP
  $47DE 18       CLC
  $47DF 6D 15 30 ADC $3015 ; bxd $3015
  $47E2 85 AE    STA $AE
  $47E4 A9 00    LDA #$00
  $47E6 2A       ROL A
  $47E7 28       PLP
  $47E8 6D 16 30 ADC $3016 ; bxd+1 $3016
  $47EB 85 AF    STA $AF
  $47ED AD 70 47 LDA $4770 ; r $4770
  $47F0 0A       ASL A
  $47F1 08       PHP
  $47F2 18       CLC
  $47F3 6D 0D 30 ADC $300D ; xd $300D
  $47F6 85 AC    STA $AC
  $47F8 A9 00    LDA #$00
  $47FA 2A       ROL A
  $47FB 28       PLP
  $47FC 6D 0E 30 ADC $300E ; xd+1 $300E
  $47FF 85 AD    STA $AD
  $4801 A0 01    LDY #$01
  $4803 B1 AC    LDA ($AC),Y
  $4805 91 AE    STA ($AE),Y
  $4807 88       DEY
  $4808 B1 AC    LDA ($AC),Y
  $480A 91 AE    STA ($AE),Y
  $480C AD 70 47 LDA $4770 ; r $4770
  $480F 0A       ASL A
  $4810 08       PHP
  $4811 18       CLC
  $4812 6D 19 30 ADC $3019 ; byd $3019
  $4815 85 AE    STA $AE
  $4817 A9 00    LDA #$00
  $4819 2A       ROL A
  $481A 28       PLP
  $481B 6D 1A 30 ADC $301A ; byd+1 $301A
  $481E 85 AF    STA $AF
  $4820 AD 70 47 LDA $4770 ; r $4770
  $4823 0A       ASL A
  $4824 08       PHP
  $4825 18       CLC
  $4826 6D 11 30 ADC $3011 ; yd $3011
  $4829 85 AC    STA $AC
  $482B A9 00    LDA #$00
  $482D 2A       ROL A
  $482E 28       PLP
  $482F 6D 12 30 ADC $3012 ; yd+1 $3012
  $4832 85 AD    STA $AD
  $4834 C8       INY
  $4835 B1 AC    LDA ($AC),Y
  $4837 91 AE    STA ($AE),Y
  $4839 88       DEY
  $483A B1 AC    LDA ($AC),Y
  $483C 91 AE    STA ($AE),Y
  $483E AE 70 47 LDX $4770 ; r $4770
L4841:
  $4841 BD 23 36 LDA $3623,X ; bx $3623
  $4844 85 A0    STA $A0
  $4846 AE 70 47 LDX $4770 ; r $4770
  $4849 BD 22 37 LDA $3722,X ; by $3722
  $484C 85 A1    STA $A1
  $484E AD 70 47 LDA $4770 ; r $4770
  $4851 0A       ASL A
  $4852 08       PHP
  $4853 18       CLC
  $4854 6D 15 30 ADC $3015 ; bxd $3015
  $4857 85 AE    STA $AE
  $4859 A9 00    LDA #$00
  $485B 2A       ROL A
  $485C 28       PLP
  $485D 6D 16 30 ADC $3016 ; bxd+1 $3016
  $4860 85 AF    STA $AF
  $4862 C8       INY
  $4863 B1 AE    LDA ($AE),Y
  $4865 85 A3    STA $A3
  $4867 88       DEY
  $4868 B1 AE    LDA ($AE),Y
  $486A 85 A2    STA $A2
  $486C AD 70 47 LDA $4770 ; r $4770
  $486F 0A       ASL A
  $4870 08       PHP
  $4871 18       CLC
  $4872 6D 19 30 ADC $3019 ; byd $3019
  $4875 85 AC    STA $AC
  $4877 A9 00    LDA #$00
  $4879 2A       ROL A
  $487A 28       PLP
  $487B 6D 1A 30 ADC $301A ; byd+1 $301A
  $487E 85 AD    STA $AD
  $4880 C8       INY
  $4881 B1 AC    LDA ($AC),Y
  $4883 85 A5    STA $A5
  $4885 88       DEY
  $4886 B1 AC    LDA ($AC),Y
  $4888 85 A4    STA $A4
  $488A A4 A2    LDY $A2
  $488C A6 A1    LDX $A1
  $488E A5 A0    LDA $A0
  $4890 20 86 40 JSR $4086 ; ahead $4086
  $4893 A5 A0    LDA $A0
  $4895 8D 72 47 STA $4772 ; pix $4772
  $4898 AD 72 47 LDA $4772 ; pix $4772
  $489B 49 01    EOR #$01
  $489D F0 03    BEQ $48A2 ; L48A2
  $489F 4C 00 49 JMP $4900 ; L4900
L48A2:
  $48A2 AD 70 47 LDA $4770 ; r $4770
  $48A5 0A       ASL A
  $48A6 08       PHP
  $48A7 18       CLC
  $48A8 6D 15 30 ADC $3015 ; bxd $3015
  $48AB 85 AE    STA $AE
  $48AD A9 00    LDA #$00
  $48AF 2A       ROL A
  $48B0 28       PLP
  $48B1 6D 16 30 ADC $3016 ; bxd+1 $3016
  $48B4 85 AF    STA $AF
  $48B6 18       CLC
  $48B7 AE 70 47 LDX $4770 ; r $4770
  $48BA BD 23 36 LDA $3623,X ; bx $3623
  $48BD A0 00    LDY #$00
  $48BF 71 AE    ADC ($AE),Y
  $48C1 85 A0    STA $A0
  $48C3 AD 70 47 LDA $4770 ; r $4770
  $48C6 0A       ASL A
  $48C7 08       PHP
  $48C8 18       CLC
  $48C9 6D 19 30 ADC $3019 ; byd $3019
  $48CC 85 AA    STA $AA
  $48CE A9 00    LDA #$00
  $48D0 2A       ROL A
  $48D1 28       PLP
  $48D2 6D 1A 30 ADC $301A ; byd+1 $301A
  $48D5 85 AB    STA $AB
  $48D7 18       CLC
  $48D8 AE 70 47 LDX $4770 ; r $4770
  $48DB BD 22 37 LDA $3722,X ; by $3722
  $48DE A0 00    LDY #$00
  $48E0 71 AA    ADC ($AA),Y
  $48E2 85 A1    STA $A1
  $48E4 A6 A1    LDX $A1
  $48E6 A5 A0    LDA $A0
  $48E8 20 B3 43 JSR $43B3 ; findr $43B3
  $48EB A5 A0    LDA $A0
  $48ED 8D 71 47 STA $4771 ; targ $4771
  $48F0 AD 71 47 LDA $4771 ; targ $4771
  $48F3 20 51 43 JSR $4351 ; kill $4351
  $48F6 AD 70 47 LDA $4770 ; r $4770
  $48F9 20 F9 42 JSR $42F9 ; cease_fire $42F9
  $48FC 60       RTS
  $48FD 4C 18 49 JMP $4918 ; L4918
L4900:
  $4900 AD 72 47 LDA $4772 ; pix $4772
  $4903 49 02    EOR #$02
  $4905 F0 0A    BEQ $4911 ; L4911
  $4907 AD 72 47 LDA $4772 ; pix $4772
  $490A 49 04    EOR #$04
  $490C F0 03    BEQ $4911 ; L4911
  $490E 4C 18 49 JMP $4918 ; L4918
L4911:
  $4911 AD 70 47 LDA $4770 ; r $4770
  $4914 20 F9 42 JSR $42F9 ; cease_fire $42F9
  $4917 60       RTS
L4918:
  $4918 AD 70 47 LDA $4770 ; r $4770
  $491B 0A       ASL A
  $491C 08       PHP
  $491D 18       CLC
  $491E 6D 15 30 ADC $3015 ; bxd $3015
  $4921 85 AE    STA $AE
  $4923 A9 00    LDA #$00
  $4925 2A       ROL A
  $4926 28       PLP
  $4927 6D 16 30 ADC $3016 ; bxd+1 $3016
  $492A 85 AF    STA $AF
  $492C 18       CLC
  $492D AE 70 47 LDX $4770 ; r $4770
  $4930 BD 23 36 LDA $3623,X ; bx $3623
  $4933 A0 00    LDY #$00
  $4935 71 AE    ADC ($AE),Y
  $4937 AE 70 47 LDX $4770 ; r $4770
  $493A 9D 23 36 STA $3623,X ; bx $3623
  $493D AD 70 47 LDA $4770 ; r $4770
  $4940 0A       ASL A
  $4941 08       PHP
  $4942 18       CLC
  $4943 6D 19 30 ADC $3019 ; byd $3019
  $4946 85 AE    STA $AE
  $4948 A9 00    LDA #$00
  $494A 2A       ROL A
  $494B 28       PLP
  $494C 6D 1A 30 ADC $301A ; byd+1 $301A
  $494F 85 AF    STA $AF
  $4951 18       CLC
  $4952 AE 70 47 LDX $4770 ; r $4770
  $4955 BD 22 37 LDA $3722,X ; by $3722
  $4958 A0 00    LDY #$00
  $495A 71 AE    ADC ($AE),Y
  $495C AE 70 47 LDX $4770 ; r $4770
  $495F 9D 22 37 STA $3722,X ; by $3722
  $4962 AE 70 47 LDX $4770 ; r $4770
  $4965 BD 23 36 LDA $3623,X ; bx $3623
  $4968 85 A0    STA $A0
  $496A AE 70 47 LDX $4770 ; r $4770
  $496D BD 22 37 LDA $3722,X ; by $3722
  $4970 85 A1    STA $A1
  $4972 AC 02 30 LDY $3002 ; ms $3002
  $4975 A6 A1    LDX $A1
  $4977 A5 A0    LDA $A0
  $4979 20 6E 3B JSR $3B6E ; plot1 $3B6E
  $497C A9 08    LDA #$08
  $497E 85 A3    STA $A3
  $4980 A0 08    LDY #$08
  $4982 A2 00    LDX #$00
  $4984 A9 01    LDA #$01
  $4986 20 04 A7 JSR $A704 ; LA704
  $4989 A9 02    LDA #$02
  $498B AE 70 47 LDX $4770 ; r $4770
  $498E 9D 1F 32 STA $321F,X ; fire $321F
  $4991 60       RTS
r: ; snapshot BYTE
  $4992 00       BRK
targ: ; snapshot BYTE
  $4993 00       BRK
pix: ; snapshot BYTE
  $4994 00       BRK
bullet: ; final PROC
  $4995 4C 98 49 JMP $4998 ; L4998
L4998:
  $4998 8D 92 49 STA $4992 ; r $4992
  $499B AE 92 49 LDX $4992 ; r $4992
  $499E BD 1F 32 LDA $321F,X ; fire $321F
  $49A1 49 01    EOR #$01
  $49A3 F0 03    BEQ $49A8 ; L49A8
  $49A5 4C AF 49 JMP $49AF ; L49AF
L49A8:
  $49A8 AD 92 49 LDA $4992 ; r $4992
  $49AB 20 73 47 JSR $4773 ; initfire $4773
  $49AE 60       RTS
L49AF:
  $49AF AE 92 49 LDX $4992 ; r $4992
  $49B2 BD 23 36 LDA $3623,X ; bx $3623
  $49B5 85 A0    STA $A0
  $49B7 AE 92 49 LDX $4992 ; r $4992
  $49BA BD 22 37 LDA $3722,X ; by $3722
  $49BD 85 A1    STA $A1
  $49BF AD 92 49 LDA $4992 ; r $4992
  $49C2 0A       ASL A
  $49C3 08       PHP
  $49C4 18       CLC
  $49C5 6D 15 30 ADC $3015 ; bxd $3015
  $49C8 85 AE    STA $AE
  $49CA A9 00    LDA #$00
  $49CC 2A       ROL A
  $49CD 28       PLP
  $49CE 6D 16 30 ADC $3016 ; bxd+1 $3016
  $49D1 85 AF    STA $AF
  $49D3 A0 01    LDY #$01
  $49D5 B1 AE    LDA ($AE),Y
  $49D7 85 A3    STA $A3
  $49D9 88       DEY
  $49DA B1 AE    LDA ($AE),Y
  $49DC 85 A2    STA $A2
  $49DE AD 92 49 LDA $4992 ; r $4992
  $49E1 0A       ASL A
  $49E2 08       PHP
  $49E3 18       CLC
  $49E4 6D 19 30 ADC $3019 ; byd $3019
  $49E7 85 AC    STA $AC
  $49E9 A9 00    LDA #$00
  $49EB 2A       ROL A
  $49EC 28       PLP
  $49ED 6D 1A 30 ADC $301A ; byd+1 $301A
  $49F0 85 AD    STA $AD
  $49F2 C8       INY
  $49F3 B1 AC    LDA ($AC),Y
  $49F5 85 A5    STA $A5
  $49F7 88       DEY
  $49F8 B1 AC    LDA ($AC),Y
  $49FA 85 A4    STA $A4
  $49FC A4 A2    LDY $A2
  $49FE A6 A1    LDX $A1
  $4A00 A5 A0    LDA $A0
  $4A02 20 86 40 JSR $4086 ; ahead $4086
  $4A05 A5 A0    LDA $A0
  $4A07 8D 94 49 STA $4994 ; pix $4994
  $4A0A AD 94 49 LDA $4994 ; pix $4994
  $4A0D 49 01    EOR #$01
  $4A0F F0 03    BEQ $4A14 ; L4A14
  $4A11 4C 72 4A JMP $4A72 ; L4A72
L4A14:
  $4A14 AD 92 49 LDA $4992 ; r $4992
  $4A17 0A       ASL A
  $4A18 08       PHP
  $4A19 18       CLC
  $4A1A 6D 15 30 ADC $3015 ; bxd $3015
  $4A1D 85 AE    STA $AE
  $4A1F A9 00    LDA #$00
  $4A21 2A       ROL A
  $4A22 28       PLP
  $4A23 6D 16 30 ADC $3016 ; bxd+1 $3016
  $4A26 85 AF    STA $AF
  $4A28 18       CLC
  $4A29 AE 92 49 LDX $4992 ; r $4992
  $4A2C BD 23 36 LDA $3623,X ; bx $3623
  $4A2F A0 00    LDY #$00
  $4A31 71 AE    ADC ($AE),Y
  $4A33 85 A0    STA $A0
  $4A35 AD 92 49 LDA $4992 ; r $4992
  $4A38 0A       ASL A
  $4A39 08       PHP
  $4A3A 18       CLC
  $4A3B 6D 19 30 ADC $3019 ; byd $3019
  $4A3E 85 AA    STA $AA
  $4A40 A9 00    LDA #$00
  $4A42 2A       ROL A
  $4A43 28       PLP
  $4A44 6D 1A 30 ADC $301A ; byd+1 $301A
  $4A47 85 AB    STA $AB
  $4A49 18       CLC
  $4A4A AE 92 49 LDX $4992 ; r $4992
  $4A4D BD 22 37 LDA $3722,X ; by $3722
  $4A50 A0 00    LDY #$00
  $4A52 71 AA    ADC ($AA),Y
  $4A54 85 A1    STA $A1
  $4A56 A6 A1    LDX $A1
  $4A58 A5 A0    LDA $A0
  $4A5A 20 B3 43 JSR $43B3 ; findr $43B3
  $4A5D A5 A0    LDA $A0
  $4A5F 8D 93 49 STA $4993 ; targ $4993
  $4A62 AD 93 49 LDA $4993 ; targ $4993
  $4A65 20 51 43 JSR $4351 ; kill $4351
  $4A68 AD 92 49 LDA $4992 ; r $4992
  $4A6B 20 F9 42 JSR $42F9 ; cease_fire $42F9
  $4A6E 60       RTS
  $4A6F 4C 8A 4A JMP $4A8A ; L4A8A
L4A72:
  $4A72 AD 94 49 LDA $4994 ; pix $4994
  $4A75 49 02    EOR #$02
  $4A77 F0 0A    BEQ $4A83 ; L4A83
  $4A79 AD 94 49 LDA $4994 ; pix $4994
  $4A7C 49 04    EOR #$04
  $4A7E F0 03    BEQ $4A83 ; L4A83
  $4A80 4C 8A 4A JMP $4A8A ; L4A8A
L4A83:
  $4A83 AD 92 49 LDA $4992 ; r $4992
  $4A86 20 F9 42 JSR $42F9 ; cease_fire $42F9
  $4A89 60       RTS
L4A8A:
  $4A8A AE 92 49 LDX $4992 ; r $4992
  $4A8D BD 23 36 LDA $3623,X ; bx $3623
  $4A90 85 A0    STA $A0
  $4A92 AE 92 49 LDX $4992 ; r $4992
  $4A95 BD 22 37 LDA $3722,X ; by $3722
  $4A98 85 A1    STA $A1
  $4A9A AC 01 30 LDY $3001 ; bl $3001
  $4A9D A6 A1    LDX $A1
  $4A9F A5 A0    LDA $A0
  $4AA1 20 6E 3B JSR $3B6E ; plot1 $3B6E
  $4AA4 AD 92 49 LDA $4992 ; r $4992
  $4AA7 0A       ASL A
  $4AA8 08       PHP
  $4AA9 18       CLC
  $4AAA 6D 15 30 ADC $3015 ; bxd $3015
  $4AAD 85 AE    STA $AE
  $4AAF A9 00    LDA #$00
  $4AB1 2A       ROL A
  $4AB2 28       PLP
  $4AB3 6D 16 30 ADC $3016 ; bxd+1 $3016
  $4AB6 85 AF    STA $AF
  $4AB8 18       CLC
  $4AB9 AE 92 49 LDX $4992 ; r $4992
  $4ABC BD 23 36 LDA $3623,X ; bx $3623
  $4ABF A0 00    LDY #$00
  $4AC1 71 AE    ADC ($AE),Y
  $4AC3 AE 92 49 LDX $4992 ; r $4992
  $4AC6 9D 23 36 STA $3623,X ; bx $3623
  $4AC9 AD 92 49 LDA $4992 ; r $4992
  $4ACC 0A       ASL A
  $4ACD 08       PHP
  $4ACE 18       CLC
  $4ACF 6D 19 30 ADC $3019 ; byd $3019
  $4AD2 85 AE    STA $AE
  $4AD4 A9 00    LDA #$00
  $4AD6 2A       ROL A
  $4AD7 28       PLP
  $4AD8 6D 1A 30 ADC $301A ; byd+1 $301A
  $4ADB 85 AF    STA $AF
  $4ADD 18       CLC
  $4ADE AE 92 49 LDX $4992 ; r $4992
  $4AE1 BD 22 37 LDA $3722,X ; by $3722
  $4AE4 A0 00    LDY #$00
  $4AE6 71 AE    ADC ($AE),Y
  $4AE8 AE 92 49 LDX $4992 ; r $4992
  $4AEB 9D 22 37 STA $3722,X ; by $3722
  $4AEE AE 92 49 LDX $4992 ; r $4992
  $4AF1 BD 23 36 LDA $3623,X ; bx $3623
  $4AF4 85 A0    STA $A0
  $4AF6 AE 92 49 LDX $4992 ; r $4992
  $4AF9 BD 22 37 LDA $3722,X ; by $3722
  $4AFC 85 A1    STA $A1
  $4AFE AC 02 30 LDY $3002 ; ms $3002
  $4B01 A6 A1    LDX $A1
  $4B03 A5 A0    LDA $A0
  $4B05 20 6E 3B JSR $3B6E ; plot1 $3B6E
  $4B08 A9 00    LDA #$00
  $4B0A 85 85    STA $85
  $4B0C A9 02    LDA #$02
  $4B0E 85 84    STA $84
  $4B10 AE 92 49 LDX $4992 ; r $4992
  $4B13 BD 1F 32 LDA $321F,X ; fire $321F
  $4B16 A2 00    LDX #$00
  $4B18 20 00 A0 JSR $A000 ; LA000
  $4B1B 85 A1    STA $A1
  $4B1D A9 08    LDA #$08
  $4B1F 85 A3    STA $A3
  $4B21 A0 08    LDY #$08
  $4B23 A6 A1    LDX $A1
  $4B25 A9 01    LDA #$01
  $4B27 20 04 A7 JSR $A704 ; LA704
  $4B2A AE 92 49 LDX $4992 ; r $4992
  $4B2D FE 1F 32 INC $321F,X ; fire $321F
  $4B30 60       RTS
r: ; snapshot BYTE
  $4B31 00       BRK
action: ; final PROC
  $4B32 4C 35 4B JMP $4B35 ; L4B35
L4B35:
  $4B35 8D 31 4B STA $4B31 ; r $4B31
  $4B38 AE 31 4B LDX $4B31 ; r $4B31
  $4B3B BD 21 30 LDA $3021,X ; alive $3021
  $4B3E D0 03    BNE $4B43 ; L4B43
  $4B40 4C 4C 4B JMP $4B4C ; L4B4C
L4B43:
  $4B43 AD 31 4B LDA $4B31 ; r $4B31
  $4B46 20 2B 45 JSR $452B ; move $452B
  $4B49 4C 79 4B JMP $4B79 ; L4B79
L4B4C:
  $4B4C A9 00    LDA #$00
  $4B4E AE 31 4B LDX $4B31 ; r $4B31
  $4B51 DD 20 31 CMP $3120,X ; expl $3120
  $4B54 90 03    BCC $4B59 ; L4B59
  $4B56 4C 62 4B JMP $4B62 ; L4B62
L4B59:
  $4B59 AD 31 4B LDA $4B31 ; r $4B31
  $4B5C 20 61 42 JSR $4261 ; explode $4261
  $4B5F 4C 79 4B JMP $4B79 ; L4B79
L4B62:
  $4B62 AD 31 4B LDA $4B31 ; r $4B31
  $4B65 C9 04    CMP #$04
  $4B67 90 0A    BCC $4B73 ; L4B73
  $4B69 AD 07 30 LDA $3007 ; gemtaken $3007
  $4B6C 49 01    EOR #$01
  $4B6E F0 03    BEQ $4B73 ; L4B73
  $4B70 4C 79 4B JMP $4B79 ; L4B79
L4B73:
  $4B73 AD 31 4B LDA $4B31 ; r $4B31
  $4B76 20 96 3F JSR $3F96 ; regen $3F96
L4B79:
  $4B79 60       RTS
r: ; snapshot BYTE
  $4B7A 00       BRK
shots: ; final PROC
  $4B7B 4C 7E 4B JMP $4B7E ; L4B7E
L4B7E:
  $4B7E A0 00    LDY #$00
  $4B80 8C 7A 4B STY $4B7A ; r $4B7A
  $4B83 38       SEC
  $4B84 AD 08 30 LDA $3008 ; numbots $3008
  $4B87 E9 01    SBC #$01
  $4B89 8D 97 4B STA $4B97
L4B8C:
  $4B8C AD 97 4B LDA $4B97
  $4B8F CD 7A 4B CMP $4B7A ; r $4B7A
  $4B92 B0 04    BCS $4B98 ; L4B98
  $4B94 4C AF 4B JMP $4BAF ; L4BAF
  $4B97 00       BRK
L4B98:
  $4B98 AE 7A 4B LDX $4B7A ; r $4B7A
  $4B9B BD 1F 32 LDA $321F,X ; fire $321F
  $4B9E D0 03    BNE $4BA3 ; L4BA3
  $4BA0 4C A9 4B JMP $4BA9 ; L4BA9
L4BA3:
  $4BA3 AD 7A 4B LDA $4B7A ; r $4B7A
  $4BA6 20 95 49 JSR $4995 ; bullet $4995
L4BA9:
  $4BA9 EE 7A 4B INC $4B7A ; r $4B7A
  $4BAC 4C 8C 4B JMP $4B8C ; L4B8C
L4BAF:
  $4BAF 60       RTS
r: ; snapshot BYTE
  $4BB0 00       BRK
reward: ; final PROC
  $4BB1 4C B4 4B JMP $4BB4 ; L4BB4
L4BB4:
  $4BB4 8D B0 4B STA $4BB0 ; r $4BB0
  $4BB7 AE B0 4B LDX $4BB0 ; r $4BB0
  $4BBA FE 21 38 INC $3821,X ; score $3821
  $4BBD 60       RTS
c: ; snapshot BYTE
  $4BBE 00       BRK
tick: ; final PROC
  $4BBF 4C C2 4B JMP $4BC2 ; L4BC2
L4BC2:
  $4BC2 A2 00    LDX #$00
  $4BC4 A9 14    LDA #$14
  $4BC6 20 67 A7 JSR $A767 ; LA767
  $4BC9 A5 A0    LDA $A0
  $4BCB 8D BE 4B STA $4BBE ; c $4BBE
L4BCE:
  $4BCE A2 00    LDX #$00
  $4BD0 A9 14    LDA #$14
  $4BD2 20 67 A7 JSR $A767 ; LA767
  $4BD5 AD BE 4B LDA $4BBE ; c $4BBE
  $4BD8 45 A0    EOR $A0
  $4BDA D0 03    BNE $4BDF ; L4BDF
  $4BDC 4C CE 4B JMP $4BCE ; L4BCE
L4BDF:
  $4BDF 60       RTS
num: ; snapshot CARD
  $4BE0 00       BRK
  $4BE1 00       BRK
r: ; snapshot BYTE
  $4BE2 00       BRK
c: ; snapshot BYTE
  $4BE3 00       BRK
count: ; snapshot BYTE
  $4BE4 00       BRK
count2: ; snapshot BYTE
  $4BE5 00       BRK
vol: ; snapshot BYTE
  $4BE6 00       BRK
speed: ; snapshot CARD
  $4BE7 00       BRK
  $4BE8 00       BRK
round: ; final PROC
  $4BE9 4C EC 4B JMP $4BEC ; L4BEC
L4BEC:
  $4BEC 8E E1 4B STX $4BE1 ; num+1 $4BE1
  $4BEF 8D E0 4B STA $4BE0 ; num $4BE0
  $4BF2 AD E0 4B LDA $4BE0 ; num $4BE0
  $4BF5 8D 08 30 STA $3008 ; numbots $3008
  $4BF8 A9 00    LDA #$00
  $4BFA 85 85    STA $85
  $4BFC A9 28    LDA #$28
  $4BFE 85 84    STA $84
  $4C00 AD 08 30 LDA $3008 ; numbots $3008
  $4C03 A2 00    LDX #$00
  $4C05 20 00 A0 JSR $A000 ; LA000
  $4C08 85 AE    STA $AE
  $4C0A 8A       TXA
  $4C0B 85 AF    STA $AF
  $4C0D 38       SEC
  $4C0E A9 20    LDA #$20
  $4C10 E5 AE    SBC $AE
  $4C12 85 AC    STA $AC
  $4C14 A9 03    LDA #$03
  $4C16 E5 AF    SBC $AF
  $4C18 85 AD    STA $AD
  $4C1A A5 AC    LDA $AC
  $4C1C C9 00    CMP #$00
  $4C1E A5 AD    LDA $AD
  $4C20 E9 00    SBC #$00
  $4C22 30 03    BMI $4C27 ; L4C27
  $4C24 4C 32 4C JMP $4C32 ; L4C32
L4C27:
  $4C27 A0 00    LDY #$00
  $4C29 8C E8 4B STY $4BE8 ; speed+1 $4BE8
  $4C2C 8C E7 4B STY $4BE7 ; speed $4BE7
  $4C2F 4C 56 4C JMP $4C56 ; L4C56
L4C32:
  $4C32 A9 00    LDA #$00
  $4C34 85 85    STA $85
  $4C36 A9 28    LDA #$28
  $4C38 85 84    STA $84
  $4C3A AD 08 30 LDA $3008 ; numbots $3008
  $4C3D A2 00    LDX #$00
  $4C3F 20 00 A0 JSR $A000 ; LA000
  $4C42 85 AE    STA $AE
  $4C44 8A       TXA
  $4C45 85 AF    STA $AF
  $4C47 38       SEC
  $4C48 A9 20    LDA #$20
  $4C4A E5 AE    SBC $AE
  $4C4C 8D E7 4B STA $4BE7 ; speed $4BE7
  $4C4F A9 03    LDA #$03
  $4C51 E5 AF    SBC $AF
  $4C53 8D E8 4B STA $4BE8 ; speed+1 $4BE8
L4C56:
  $4C56 20 99 3A JSR $3A99 ; scrninit $3A99
  $4C59 20 B9 3D JSR $3DB9 ; rinit $3DB9
  $4C5C 20 E5 3E JSR $3EE5 ; scores $3EE5
  $4C5F A0 FF    LDY #$FF
  $4C61 A2 02    LDX #$02
  $4C63 A9 FC    LDA #$FC
  $4C65 20 77 A7 JSR $A777 ; LA777
  $4C68 A0 00    LDY #$00
  $4C6A A2 00    LDX #$00
  $4C6C A9 4D    LDA #$4D
  $4C6E 20 77 A7 JSR $A777 ; LA777
  $4C71 A0 00    LDY #$00
  $4C73 8C 09 30 STY $3009 ; winner $3009
L4C76:
  $4C76 A0 00    LDY #$00
  $4C78 8C E2 4B STY $4BE2 ; r $4BE2
  $4C7B 38       SEC
  $4C7C AD 08 30 LDA $3008 ; numbots $3008
  $4C7F E9 01    SBC #$01
  $4C81 8D 8F 4C STA $4C8F
L4C84:
  $4C84 AD 8F 4C LDA $4C8F
  $4C87 CD E2 4B CMP $4BE2 ; r $4BE2
  $4C8A B0 04    BCS $4C90 ; L4C90
  $4C8C 4C 0A 4D JMP $4D0A ; L4D0A
  $4C8F 00       BRK
L4C90:
  $4C90 AD E2 4B LDA $4BE2 ; r $4BE2
  $4C93 20 32 4B JSR $4B32 ; action $4B32
  $4C96 EE E4 4B INC $4BE4 ; count $4BE4
  $4C99 AD 08 30 LDA $3008 ; numbots $3008
  $4C9C 4A       LSR A
  $4C9D 85 AE    STA $AE
  $4C9F 38       SEC
  $4CA0 A5 AE    LDA $AE
  $4CA2 E9 01    SBC #$01
  $4CA4 85 AC    STA $AC
  $4CA6 AD E4 4B LDA $4BE4 ; count $4BE4
  $4CA9 45 AC    EOR $AC
  $4CAB F0 03    BEQ $4CB0 ; L4CB0
  $4CAD 4C B8 4C JMP $4CB8 ; L4CB8
L4CB0:
  $4CB0 A0 00    LDY #$00
  $4CB2 8C E4 4B STY $4BE4 ; count $4BE4
  $4CB5 20 7B 4B JSR $4B7B ; shots $4B7B
L4CB8:
  $4CB8 AD 07 30 LDA $3007 ; gemtaken $3007
  $4CBB F0 03    BEQ $4CC0 ; L4CC0
  $4CBD 4C C6 4C JMP $4CC6 ; L4CC6
L4CC0:
  $4CC0 20 A4 3D JSR $3DA4 ; plotgem $3DA4
  $4CC3 4C E6 4C JMP $4CE6 ; L4CE6
L4CC6:
  $4CC6 38       SEC
  $4CC7 A9 0F    LDA #$0F
  $4CC9 ED E6 4B SBC $4BE6 ; vol $4BE6
  $4CCC 85 A3    STA $A3
  $4CCE A0 0A    LDY #$0A
  $4CD0 A2 32    LDX #$32
  $4CD2 A9 02    LDA #$02
  $4CD4 20 04 A7 JSR $A704 ; LA704
  $4CD7 18       CLC
  $4CD8 AD E6 4B LDA $4BE6 ; vol $4BE6
  $4CDB 69 01    ADC #$01
  $4CDD 85 AE    STA $AE
  $4CDF A5 AE    LDA $AE
  $4CE1 29 0F    AND #$0F
  $4CE3 8D E6 4B STA $4BE6 ; vol $4BE6
L4CE6:
  $4CE6 EE E5 4B INC $4BE5 ; count2 $4BE5
  $4CE9 AD 08 30 LDA $3008 ; numbots $3008
  $4CEC 4A       LSR A
  $4CED 85 AE    STA $AE
  $4CEF AD E5 4B LDA $4BE5 ; count2 $4BE5
  $4CF2 45 AE    EOR $AE
  $4CF4 F0 03    BEQ $4CF9 ; L4CF9
  $4CF6 4C 04 4D JMP $4D04 ; L4D04
L4CF9:
  $4CF9 A0 00    LDY #$00
  $4CFB 8C E5 4B STY $4BE5 ; count2 $4BE5
  $4CFE 20 BF 4B JSR $4BBF ; tick $4BBF
  $4D01 20 BF 4B JSR $4BBF ; tick $4BBF
L4D04:
  $4D04 EE E2 4B INC $4BE2 ; r $4BE2
  $4D07 4C 84 4C JMP $4C84 ; L4C84
L4D0A:
  $4D0A A2 00    LDX #$00
  $4D0C A9 14    LDA #$14
  $4D0E 20 67 A7 JSR $A767 ; LA767
  $4D11 A5 A0    LDA $A0
  $4D13 8D E3 4B STA $4BE3 ; c $4BE3
  $4D16 AC E3 4B LDY $4BE3 ; c $4BE3
  $4D19 A2 02    LDX #$02
  $4D1B A9 C7    LDA #$C7
  $4D1D 20 77 A7 JSR $A777 ; LA777
  $4D20 A9 00    LDA #$00
  $4D22 CD 09 30 CMP $3009 ; winner $3009
  $4D25 90 03    BCC $4D2A ; L4D2A
  $4D27 4C 76 4C JMP $4C76 ; L4C76
L4D2A:
  $4D2A 20 21 A7 JSR $A721 ; LA721
  $4D2D 38       SEC
  $4D2E AD 09 30 LDA $3009 ; winner $3009
  $4D31 E9 01    SBC #$01
  $4D33 85 A0    STA $A0
  $4D35 A5 A0    LDA $A0
  $4D37 20 B1 4B JSR $4BB1 ; reward $4BB1
  $4D3A 60       RTS
intro: ; final PROC
  $4D3B 4C 3E 4D JMP $4D3E ; L4D3E
L4D3E:
  $4D3E A9 00    LDA #$00
  $4D40 20 54 A6 JSR $A654 ; LA654
  $4D43 4C 6D 4D JMP $4D6D ; L4D6D
  $4D46 26 25    ROL $25
  $4D48 45 25    EOR $25
  $4D4A 45 57    EOR $57
  $4D4C 65 6C    ADC $6C
  $4D4E 63       .BYTE $63
  $4D4F 6F       .BYTE $6F
  $4D50 6D 65 20 ADC $2065
  $4D53 74       .BYTE $74
  $4D54 6F       .BYTE $6F
  $4D55 20 47 45 JSR $4547 ; L4547
  $4D58 4D 2C 20 EOR $202C
  $4D5B 62       .BYTE $62
  $4D5C 79 20 4A ADC $4A20,Y
  $4D5F 6F       .BYTE $6F
  $4D60 65 6C    ADC $6C
  $4D62 20 47 6C JSR $6C47 ; L6C47
  $4D65 75 63    ADC $63,X
  $4D67 6B       .BYTE $6B
  $4D68 2E 25 45 ROL $4525 ; L4525
  $4D6B 25 45    AND $45
L4D6D:
  $4D6D A2 4D    LDX #$4D
  $4D6F A9 46    LDA #$46
  $4D71 20 CC A3 JSR $A3CC ; LA3CC
L4D74:
  $4D74 4C 90 4D JMP $4D90 ; L4D90
  $4D77 18       CLC
  $4D78 25 45    AND $45
  $4D7A 48       PHA
  $4D7B 6F       .BYTE $6F
  $4D7C 77       .BYTE $77
  $4D7D 20 6D 61 JSR $616D ; L616D
  $4D80 6E 79 20 ROR $2079
  $4D83 70 6F    BVS $4DF4 ; L4DF4
  $4D85 69 6E    ADC #$6E
  $4D87 74       .BYTE $74
  $4D88 73       .BYTE $73
  $4D89 20 77 69 JSR $6977 ; L6977
  $4D8C 6E 73 3F ROR $3F73
  $4D8F 20 A2 4D JSR $4DA2 ; L4DA2
  $4D92 A9 77    LDA #$77
  $4D94 20 CC A3 JSR $A3CC ; LA3CC
  $4D97 20 88 A5 JSR $A588 ; LA588
  $4D9A A5 A0    LDA $A0
  $4D9C 8D 0B 30 STA $300B ; playto $300B
  $4D9F A9 00    LDA #$00
  $4DA1 CD 0B 30 CMP $300B ; playto $300B
  $4DA4 90 03    BCC $4DA9 ; L4DA9
  $4DA6 4C 74 4D JMP $4D74 ; L4D74
L4DA9:
  $4DA9 4C D1 4D JMP $4DD1 ; L4DD1
  $4DAC 24 25    BIT $25
  $4DAE 45 25    EOR $25
  $4DB0 45 48    EOR $48
  $4DB2 6F       .BYTE $6F
  $4DB3 77       .BYTE $77
  $4DB4 20 6D 61 JSR $616D ; L616D
  $4DB7 6E 79 20 ROR $2079
  $4DBA 72       .BYTE $72
  $4DBB 6F       .BYTE $6F
  $4DBC 62       .BYTE $62
  $4DBD 6F       .BYTE $6F
  $4DBE 74       .BYTE $74
  $4DBF 73       .BYTE $73
  $4DC0 20 69 6E JSR $6E69 ; L6E69
  $4DC3 20 66 69 JSR $6966 ; L6966
  $4DC6 6E 61 6C ROR $6C61
  $4DC9 20 72 6F JSR $6F72 ; L6F72
  $4DCC 75 6E    ADC $6E,X
  $4DCE 64       .BYTE $64
  $4DCF 3F       .BYTE $3F
  $4DD0 20 A2 4D JSR $4DA2 ; L4DA2
  $4DD3 A9 AC    LDA #$AC
  $4DD5 20 CC A3 JSR $A3CC ; LA3CC
  $4DD8 20 88 A5 JSR $A588 ; LA588
  $4DDB A5 A0    LDA $A0
  $4DDD 8D 0C 30 STA $300C ; maxbots $300C
  $4DE0 4C FF 4D JMP $4DFF ; L4DFF
  $4DE3 1B       .BYTE $1B
  $4DE4 25 45    AND $45
  $4DE6 25 45    AND $45
  $4DE8 50 72    BVC $4E5C ; L4E5C
  $4DEA 65 73    ADC $73
  $4DEC 73       .BYTE $73
  $4DED 20 53 54 JSR $5453 ; L5453
  $4DF0 41 52    EOR ($52,X)
  $4DF2 54       .BYTE $54
  $4DF3 20 74 6F JSR $6F74 ; L6F74
  $4DF6 20 62 65 JSR $6562 ; L6562
  $4DF9 67       .BYTE $67
  $4DFA 69 6E    ADC #$6E
  $4DFC 2E 2E 2E ROL $2E2E
L4DFF:
  $4DFF A2 4D    LDX #$4D
  $4E01 A9 E3    LDA #$E3
  $4E03 20 CC A3 JSR $A3CC ; LA3CC
L4E06:
  $4E06 A2 D0    LDX #$D0
  $4E08 A9 1F    LDA #$1F
  $4E0A 20 67 A7 JSR $A767 ; LA767
  $4E0D A5 A0    LDA $A0
  $4E0F 49 06    EOR #$06
  $4E11 F0 03    BEQ $4E16 ; L4E16
  $4E13 4C 06 4E JMP $4E06 ; L4E06
L4E16:
  $4E16 60       RTS
k: ; snapshot BYTE
  $4E17 00       BRK
playagain: ; final BYTE FUNC
  $4E18 4C 1B 4E JMP $4E1B ; L4E1B
L4E1B:
  $4E1B A9 00    LDA #$00
  $4E1D 20 54 A6 JSR $A654 ; LA654
  $4E20 4C 34 4E JMP $4E34 ; L4E34
  $4E23 10 25    BPL $4E4A ; L4E4A
  $4E25 45 25    EOR $25
  $4E27 45 47    EOR $47
  $4E29 61 6D    ADC ($6D,X)
  $4E2B 65 20    ADC $20
  $4E2D 6F       .BYTE $6F
  $4E2E 76 65    ROR $65,X
  $4E30 72       .BYTE $72
  $4E31 21 25    AND ($25,X)
  $4E33 45 A2    EOR $A2
  $4E35 4E A9 23 LSR $23A9
  $4E38 20 CC A3 JSR $A3CC ; LA3CC
L4E3B:
  $4E3B 4C 53 4E JMP $4E53 ; L4E53
  $4E3E 14       .BYTE $14
  $4E3F 25 45    AND $45
  $4E41 50 6C    BVC $4EAF ; L4EAF
  $4E43 61 79    ADC ($79,X)
  $4E45 20 61 67 JSR $6761 ; L6761
  $4E48 61 69    ADC ($69,X)
L4E4A:
  $4E4A 6E 20 28 ROR $2820
  $4E4D 79 2F 6E ADC $6E2F,Y
  $4E50 29 3F    AND #$3F
  $4E52 20 A2 4E JSR $4EA2 ; L4EA2
  $4E55 A9 3E    LDA #$3E
  $4E57 20 CC A3 JSR $A3CC ; LA3CC
  $4E5A A9 01    LDA #$01
L4E5C:
  $4E5C 20 AD A4 JSR $A4AD ; LA4AD
  $4E5F A5 A0    LDA $A0
  $4E61 8D 17 4E STA $4E17 ; k $4E17
  $4E64 AD 17 4E LDA $4E17 ; k $4E17
  $4E67 49 79    EOR #$79
  $4E69 F0 0A    BEQ $4E75 ; L4E75
  $4E6B AD 17 4E LDA $4E17 ; k $4E17
  $4E6E 49 59    EOR #$59
  $4E70 F0 03    BEQ $4E75 ; L4E75
  $4E72 4C 7D 4E JMP $4E7D ; L4E7D
L4E75:
  $4E75 A9 01    LDA #$01
  $4E77 85 A0    STA $A0
  $4E79 60       RTS
  $4E7A 4C 93 4E JMP $4E93 ; L4E93
L4E7D:
  $4E7D AD 17 4E LDA $4E17 ; k $4E17
  $4E80 49 6E    EOR #$6E
  $4E82 F0 0A    BEQ $4E8E ; L4E8E
  $4E84 AD 17 4E LDA $4E17 ; k $4E17
  $4E87 49 4E    EOR #$4E
  $4E89 F0 03    BEQ $4E8E ; L4E8E
  $4E8B 4C 93 4E JMP $4E93 ; L4E93
L4E8E:
  $4E8E A9 00    LDA #$00
  $4E90 85 A0    STA $A0
  $4E92 60       RTS
L4E93:
  $4E93 4C 3B 4E JMP $4E3B ; L4E3B
r: ; snapshot BYTE
  $4E96 00       BRK
x: ; snapshot BYTE
  $4E97 00       BRK
y: ; snapshot BYTE
  $4E98 00       BRK
pix: ; snapshot BYTE
  $4E99 00       BRK
vol: ; snapshot BYTE
  $4E9A 00       BRK
p: ; snapshot BYTE
  $4E9B 00       BRK
mask: ; snapshot BYTE ARRAY
  $4E9C 80       .BYTE $80
  $4E9D 40       RTI
  $4E9E 20 10 08 JSR $0810 ; L0810
  $4EA1 04       .BYTE $04
L4EA2:
  $4EA2 02       .BYTE $02
  $4EA3 01 4C    ORA ($4C,X)
  $4EA5 A7       .BYTE $A7
  $4EA6 4E 8D 96 LSR $968D
  $4EA9 4E A0 00 LSR $00A0
  $4EAC 8C 97 4E STY $4E97 ; x $4E97
L4EAF:
  $4EAF A9 07    LDA #$07
  $4EB1 CD 97 4E CMP $4E97 ; x $4E97
  $4EB4 B0 03    BCS $4EB9 ; L4EB9
  $4EB6 4C 4B 50 JMP $504B ; L504B
L4EB9:
  $4EB9 A0 00    LDY #$00
  $4EBB 8C 98 4E STY $4E98 ; y $4E98
L4EBE:
  $4EBE A9 07    LDA #$07
  $4EC0 CD 98 4E CMP $4E98 ; y $4E98
  $4EC3 B0 03    BCS $4EC8 ; L4EC8
  $4EC5 4C 45 50 JMP $5045 ; L5045
L4EC8:
  $4EC8 18       CLC
  $4EC9 AD 96 4E LDA $4E96 ; r $4E96
  $4ECC 69 01    ADC #$01
  $4ECE 85 AE    STA $AE
  $4ED0 A9 00    LDA #$00
  $4ED2 85 85    STA $85
  $4ED4 A9 08    LDA #$08
  $4ED6 85 84    STA $84
  $4ED8 A5 AE    LDA $AE
  $4EDA A2 00    LDX #$00
  $4EDC 20 00 A0 JSR $A000 ; LA000
  $4EDF 85 AC    STA $AC
  $4EE1 8A       TXA
  $4EE2 85 AD    STA $AD
  $4EE4 18       CLC
  $4EE5 AD 35 38 LDA $3835 ; cset $3835
  $4EE8 65 AC    ADC $AC
  $4EEA 85 AE    STA $AE
  $4EEC AD 36 38 LDA $3836 ; cset+1 $3836
  $4EEF 65 AD    ADC $AD
  $4EF1 85 AF    STA $AF
  $4EF3 18       CLC
  $4EF4 A5 AE    LDA $AE
  $4EF6 6D 98 4E ADC $4E98 ; y $4E98
  $4EF9 85 A0    STA $A0
  $4EFB A5 AF    LDA $AF
  $4EFD 69 00    ADC #$00
  $4EFF 85 A1    STA $A1
  $4F01 A6 A1    LDX $A1
  $4F03 A5 A0    LDA $A0
  $4F05 20 67 A7 JSR $A767 ; LA767
  $4F08 AE 97 4E LDX $4E97 ; x $4E97
  $4F0B BD 9C 4E LDA $4E9C,X ; mask $4E9C
  $4F0E 25 A0    AND $A0
  $4F10 8D 99 4E STA $4E99 ; pix $4E99
  $4F13 AD 99 4E LDA $4E99 ; pix $4E99
  $4F16 D0 03    BNE $4F1B ; L4F1B
  $4F18 4C 3F 50 JMP $503F ; L503F
L4F1B:
  $4F1B A9 00    LDA #$00
  $4F1D 85 85    STA $85
  $4F1F A9 02    LDA #$02
  $4F21 85 84    STA $84
  $4F23 AD 97 4E LDA $4E97 ; x $4E97
  $4F26 A2 00    LDX #$00
  $4F28 20 00 A0 JSR $A000 ; LA000
  $4F2B 85 AE    STA $AE
  $4F2D 8A       TXA
  $4F2E 85 AF    STA $AF
  $4F30 18       CLC
  $4F31 A5 AE    LDA $AE
  $4F33 69 02    ADC #$02
  $4F35 85 A0    STA $A0
  $4F37 A9 00    LDA #$00
  $4F39 85 85    STA $85
  $4F3B A9 02    LDA #$02
  $4F3D 85 84    STA $84
  $4F3F AD 98 4E LDA $4E98 ; y $4E98
  $4F42 A2 00    LDX #$00
  $4F44 20 00 A0 JSR $A000 ; LA000
  $4F47 85 AE    STA $AE
  $4F49 8A       TXA
  $4F4A 85 AF    STA $AF
  $4F4C 18       CLC
  $4F4D A5 AE    LDA $AE
  $4F4F 69 04    ADC #$04
  $4F51 85 A1    STA $A1
  $4F53 AE 96 4E LDX $4E96 ; r $4E96
  $4F56 BD 1E 33 LDA $331E,X ; image $331E
  $4F59 85 A2    STA $A2
  $4F5B A4 A2    LDY $A2
  $4F5D A6 A1    LDX $A1
  $4F5F A5 A0    LDA $A0
  $4F61 20 6E 3B JSR $3B6E ; plot1 $3B6E
  $4F64 A9 00    LDA #$00
  $4F66 85 85    STA $85
  $4F68 A9 02    LDA #$02
  $4F6A 85 84    STA $84
  $4F6C AD 97 4E LDA $4E97 ; x $4E97
  $4F6F A2 00    LDX #$00
  $4F71 20 00 A0 JSR $A000 ; LA000
  $4F74 85 AE    STA $AE
  $4F76 8A       TXA
  $4F77 85 AF    STA $AF
  $4F79 18       CLC
  $4F7A A5 AE    LDA $AE
  $4F7C 69 03    ADC #$03
  $4F7E 85 A0    STA $A0
  $4F80 A9 00    LDA #$00
  $4F82 85 85    STA $85
  $4F84 A9 02    LDA #$02
  $4F86 85 84    STA $84
  $4F88 AD 98 4E LDA $4E98 ; y $4E98
  $4F8B A2 00    LDX #$00
  $4F8D 20 00 A0 JSR $A000 ; LA000
  $4F90 85 AE    STA $AE
  $4F92 8A       TXA
  $4F93 85 AF    STA $AF
  $4F95 18       CLC
  $4F96 A5 AE    LDA $AE
  $4F98 69 04    ADC #$04
  $4F9A 85 A1    STA $A1
  $4F9C AE 96 4E LDX $4E96 ; r $4E96
  $4F9F BD 1E 33 LDA $331E,X ; image $331E
  $4FA2 85 A2    STA $A2
  $4FA4 A4 A2    LDY $A2
  $4FA6 A6 A1    LDX $A1
  $4FA8 A5 A0    LDA $A0
  $4FAA 20 6E 3B JSR $3B6E ; plot1 $3B6E
  $4FAD A9 00    LDA #$00
  $4FAF 85 85    STA $85
  $4FB1 A9 02    LDA #$02
  $4FB3 85 84    STA $84
  $4FB5 AD 97 4E LDA $4E97 ; x $4E97
  $4FB8 A2 00    LDX #$00
  $4FBA 20 00 A0 JSR $A000 ; LA000
  $4FBD 85 AE    STA $AE
  $4FBF 8A       TXA
  $4FC0 85 AF    STA $AF
  $4FC2 18       CLC
  $4FC3 A5 AE    LDA $AE
  $4FC5 69 02    ADC #$02
  $4FC7 85 A0    STA $A0
  $4FC9 A9 00    LDA #$00
  $4FCB 85 85    STA $85
  $4FCD A9 02    LDA #$02
  $4FCF 85 84    STA $84
  $4FD1 AD 98 4E LDA $4E98 ; y $4E98
  $4FD4 A2 00    LDX #$00
  $4FD6 20 00 A0 JSR $A000 ; LA000
  $4FD9 85 AE    STA $AE
  $4FDB 8A       TXA
  $4FDC 85 AF    STA $AF
  $4FDE 18       CLC
  $4FDF A5 AE    LDA $AE
  $4FE1 69 05    ADC #$05
  $4FE3 85 A1    STA $A1
  $4FE5 AE 96 4E LDX $4E96 ; r $4E96
  $4FE8 BD 1E 33 LDA $331E,X ; image $331E
  $4FEB 85 A2    STA $A2
  $4FED A4 A2    LDY $A2
  $4FEF A6 A1    LDX $A1
  $4FF1 A5 A0    LDA $A0
  $4FF3 20 6E 3B JSR $3B6E ; plot1 $3B6E
  $4FF6 A9 00    LDA #$00
  $4FF8 85 85    STA $85
  $4FFA A9 02    LDA #$02
  $4FFC 85 84    STA $84
  $4FFE AD 97 4E LDA $4E97 ; x $4E97
  $5001 A2 00    LDX #$00
  $5003 20 00 A0 JSR $A000 ; LA000
  $5006 85 AE    STA $AE
  $5008 8A       TXA
  $5009 85 AF    STA $AF
  $500B 18       CLC
  $500C A5 AE    LDA $AE
  $500E 69 03    ADC #$03
  $5010 85 A0    STA $A0
  $5012 A9 00    LDA #$00
  $5014 85 85    STA $85
  $5016 A9 02    LDA #$02
  $5018 85 84    STA $84
  $501A AD 98 4E LDA $4E98 ; y $4E98
  $501D A2 00    LDX #$00
  $501F 20 00 A0 JSR $A000 ; LA000
  $5022 85 AE    STA $AE
  $5024 8A       TXA
  $5025 85 AF    STA $AF
  $5027 18       CLC
  $5028 A5 AE    LDA $AE
  $502A 69 05    ADC #$05
  $502C 85 A1    STA $A1
  $502E AE 96 4E LDX $4E96 ; r $4E96
  $5031 BD 1E 33 LDA $331E,X ; image $331E
  $5034 85 A2    STA $A2
  $5036 A4 A2    LDY $A2
  $5038 A6 A1    LDX $A1
  $503A A5 A0    LDA $A0
  $503C 20 6E 3B JSR $3B6E ; plot1 $3B6E
L503F:
  $503F EE 98 4E INC $4E98 ; y $4E98
  $5042 4C BE 4E JMP $4EBE ; L4EBE
L5045:
  $5045 EE 97 4E INC $4E97 ; x $4E97
  $5048 4C AF 4E JMP $4EAF ; L4EAF
L504B:
  $504B A0 00    LDY #$00
  $504D 8C 9A 4E STY $4E9A ; vol $4E9A
L5050:
  $5050 A9 0F    LDA #$0F
  $5052 CD 9A 4E CMP $4E9A ; vol $4E9A
  $5055 B0 03    BCS $505A ; L505A
  $5057 4C DE 50 JMP $50DE ; L50DE
L505A:
  $505A 38       SEC
  $505B A9 0F    LDA #$0F
  $505D ED 9A 4E SBC $4E9A ; vol $4E9A
  $5060 85 A3    STA $A3
  $5062 A0 0A    LDY #$0A
  $5064 A2 32    LDX #$32
  $5066 A9 00    LDA #$00
  $5068 20 04 A7 JSR $A704 ; LA704
  $506B 38       SEC
  $506C A9 0F    LDA #$0F
  $506E ED 9A 4E SBC $4E9A ; vol $4E9A
  $5071 85 A3    STA $A3
  $5073 A0 0A    LDY #$0A
  $5075 A2 64    LDX #$64
  $5077 A9 01    LDA #$01
  $5079 20 04 A7 JSR $A704 ; LA704
  $507C 38       SEC
  $507D A9 0F    LDA #$0F
  $507F ED 9A 4E SBC $4E9A ; vol $4E9A
  $5082 85 A3    STA $A3
  $5084 A0 0A    LDY #$0A
  $5086 A2 96    LDX #$96
  $5088 A9 02    LDA #$02
  $508A 20 04 A7 JSR $A704 ; LA704
  $508D 38       SEC
  $508E A9 0F    LDA #$0F
  $5090 ED 9A 4E SBC $4E9A ; vol $4E9A
  $5093 85 A3    STA $A3
  $5095 A0 0A    LDY #$0A
  $5097 A2 C8    LDX #$C8
  $5099 A9 03    LDA #$03
  $509B 20 04 A7 JSR $A704 ; LA704
  $509E A9 00    LDA #$00
  $50A0 85 85    STA $85
  $50A2 A9 02    LDA #$02
  $50A4 85 84    STA $84
  $50A6 AD 9A 4E LDA $4E9A ; vol $4E9A
  $50A9 A2 00    LDX #$00
  $50AB 20 90 A0 JSR $A090 ; LA090
  $50AE 85 AE    STA $AE
  $50B0 18       CLC
  $50B1 A5 AE    LDA $AE
  $50B3 69 02    ADC #$02
  $50B5 85 A1    STA $A1
  $50B7 A0 0A    LDY #$0A
  $50B9 A6 A1    LDX $A1
  $50BB A9 00    LDA #$00
  $50BD 20 CE A6 JSR $A6CE ; LA6CE
  $50C0 A0 01    LDY #$01
  $50C2 8C 9B 4E STY $4E9B ; p $4E9B
L50C5:
  $50C5 A9 08    LDA #$08
  $50C7 CD 9B 4E CMP $4E9B ; p $4E9B
  $50CA B0 03    BCS $50CF ; L50CF
  $50CC 4C D8 50 JMP $50D8 ; L50D8
L50CF:
  $50CF 20 BF 4B JSR $4BBF ; tick $4BBF
  $50D2 EE 9B 4E INC $4E9B ; p $4E9B
  $50D5 4C C5 50 JMP $50C5 ; L50C5
L50D8:
  $50D8 EE 9A 4E INC $4E9A ; vol $4E9A
  $50DB 4C 50 50 JMP $5050 ; L5050
L50DE:
  $50DE A0 01    LDY #$01
  $50E0 8C 9B 4E STY $4E9B ; p $4E9B
L50E3:
  $50E3 A9 5A    LDA #$5A
  $50E5 CD 9B 4E CMP $4E9B ; p $4E9B
  $50E8 B0 03    BCS $50ED ; L50ED
  $50EA 4C F6 50 JMP $50F6 ; L50F6
L50ED:
  $50ED 20 BF 4B JSR $4BBF ; tick $4BBF
  $50F0 EE 9B 4E INC $4E9B ; p $4E9B
  $50F3 4C E3 50 JMP $50E3 ; L50E3
L50F6:
  $50F6 60       RTS
r: ; snapshot BYTE
  $50F7 00       BRK
i: ; snapshot BYTE
  $50F8 00       BRK
n: ; snapshot BYTE
  $50F9 00       BRK
xd: ; snapshot INT
  $50FA 00       BRK
  $50FB 00       BRK
yd: ; snapshot INT
  $50FC 00       BRK
  $50FD 00       BRK
xx: ; snapshot INT
  $50FE 00       BRK
  $50FF 00       BRK
yy: ; snapshot INT
  $5100 00       BRK
  $5101 00       BRK
announce: ; final PROC
  $5102 4C 05 51 JMP $5105 ; L5105
L5105:
  $5105 8D F7 50 STA $50F7 ; r $50F7
  $5108 20 E5 3E JSR $3EE5 ; scores $3EE5
  $510B A0 00    LDY #$00
  $510D 8C F8 50 STY $50F8 ; i $50F8
L5110:
  $5110 A9 0F    LDA #$0F
  $5112 CD F8 50 CMP $50F8 ; i $50F8
  $5115 B0 03    BCS $511A ; L511A
  $5117 4C 65 51 JMP $5165 ; L5165
L511A:
  $511A A0 00    LDY #$00
  $511C 8C F9 50 STY $50F9 ; n $50F9
L511F:
  $511F A9 64    LDA #$64
  $5121 CD F9 50 CMP $50F9 ; n $50F9
  $5124 B0 03    BCS $5129 ; L5129
  $5126 4C 5C 51 JMP $515C ; L515C
L5129:
  $5129 38       SEC
  $512A A9 0F    LDA #$0F
  $512C ED F8 50 SBC $50F8 ; i $50F8
  $512F 85 A3    STA $A3
  $5131 A0 08    LDY #$08
  $5133 AE F9 50 LDX $50F9 ; n $50F9
  $5136 A9 00    LDA #$00
  $5138 20 04 A7 JSR $A704 ; LA704
  $513B A9 00    LDA #$00
  $513D 85 85    STA $85
  $513F A9 0A    LDA #$0A
  $5141 85 84    STA $84
  $5143 AD F9 50 LDA $50F9 ; n $50F9
  $5146 A2 00    LDX #$00
  $5148 20 90 A0 JSR $A090 ; LA090
  $514B 85 A2    STA $A2
  $514D A4 A2    LDY $A2
  $514F A2 06    LDX #$06
  $5151 A9 02    LDA #$02
  $5153 20 CE A6 JSR $A6CE ; LA6CE
  $5156 EE F9 50 INC $50F9 ; n $50F9
  $5159 4C 1F 51 JMP $511F ; L511F
L515C:
  $515C 20 BF 4B JSR $4BBF ; tick $4BBF
  $515F EE F8 50 INC $50F8 ; i $50F8
  $5162 4C 10 51 JMP $5110 ; L5110
L5165:
  $5165 A0 00    LDY #$00
  $5167 A2 00    LDX #$00
  $5169 A9 02    LDA #$02
  $516B 20 CE A6 JSR $A6CE ; LA6CE
  $516E A0 06    LDY #$06
  $5170 A2 09    LDX #$09
  $5172 A9 03    LDA #$03
  $5174 20 CE A6 JSR $A6CE ; LA6CE
  $5177 A0 00    LDY #$00
  $5179 8C F8 50 STY $50F8 ; i $50F8
L517C:
  $517C A9 0B    LDA #$0B
  $517E CD F8 50 CMP $50F8 ; i $50F8
  $5181 B0 03    BCS $5186 ; L5186
  $5183 4C C9 52 JMP $52C9 ; L52C9
L5186:
  $5186 38       SEC
  $5187 A9 0B    LDA #$0B
  $5189 ED F8 50 SBC $50F8 ; i $50F8
  $518C 85 A1    STA $A1
  $518E A9 0F    LDA #$0F
  $5190 85 A3    STA $A3
  $5192 A0 08    LDY #$08
  $5194 A6 A1    LDX $A1
  $5196 A9 00    LDA #$00
  $5198 20 04 A7 JSR $A704 ; LA704
  $519B A9 00    LDA #$00
  $519D 85 85    STA $85
  $519F A9 02    LDA #$02
  $51A1 85 84    STA $84
  $51A3 AD F8 50 LDA $50F8 ; i $50F8
  $51A6 A2 00    LDX #$00
  $51A8 20 00 A0 JSR $A000 ; LA000
  $51AB 85 AE    STA $AE
  $51AD 8A       TXA
  $51AE 85 AF    STA $AF
  $51B0 38       SEC
  $51B1 A9 18    LDA #$18
  $51B3 E5 AE    SBC $AE
  $51B5 85 A1    STA $A1
  $51B7 A9 08    LDA #$08
  $51B9 85 A3    STA $A3
  $51BB A0 0A    LDY #$0A
  $51BD A6 A1    LDX $A1
  $51BF A9 01    LDA #$01
  $51C1 20 04 A7 JSR $A704 ; LA704
  $51C4 A0 0C    LDY #$0C
  $51C6 AE F8 50 LDX $50F8 ; i $50F8
  $51C9 A9 00    LDA #$00
  $51CB 20 CE A6 JSR $A6CE ; LA6CE
  $51CE A0 00    LDY #$00
  $51D0 8C F9 50 STY $50F9 ; n $50F9
  $51D3 38       SEC
  $51D4 AD 08 30 LDA $3008 ; numbots $3008
  $51D7 E9 01    SBC #$01
  $51D9 8D E7 51 STA $51E7
L51DC:
  $51DC AD E7 51 LDA $51E7
  $51DF CD F9 50 CMP $50F9 ; n $50F9
  $51E2 B0 04    BCS $51E8 ; L51E8
  $51E4 4C BD 52 JMP $52BD ; L52BD
  $51E7 00       BRK
L51E8:
  $51E8 AE F9 50 LDX $50F9 ; n $50F9
  $51EB BD 21 30 LDA $3021,X ; alive $3021
  $51EE 49 01    EOR #$01
  $51F0 F0 03    BEQ $51F5 ; L51F5
  $51F2 4C B7 52 JMP $52B7 ; L52B7
L51F5:
  $51F5 AD F9 50 LDA $50F9 ; n $50F9
  $51F8 4D F7 50 EOR $50F7 ; r $50F7
  $51FB D0 03    BNE $5200 ; L5200
  $51FD 4C B7 52 JMP $52B7 ; L52B7
L5200:
  $5200 A9 00    LDA #$00
  $5202 8D FF 50 STA $50FF ; xx+1 $50FF
  $5205 AE F9 50 LDX $50F9 ; n $50F9
  $5208 BD 25 34 LDA $3425,X ; x $3425
  $520B 8D FE 50 STA $50FE ; xx $50FE
  $520E A9 00    LDA #$00
  $5210 8D 01 51 STA $5101 ; yy+1 $5101
  $5213 AE F9 50 LDX $50F9 ; n $50F9
  $5216 BD 24 35 LDA $3524,X ; y $3524
  $5219 8D 00 51 STA $5100 ; yy $5100
  $521C 38       SEC
  $521D A9 09    LDA #$09
  $521F ED FE 50 SBC $50FE ; xx $50FE
  $5222 85 A0    STA $A0
  $5224 A9 00    LDA #$00
  $5226 ED FF 50 SBC $50FF ; xx+1 $50FF
  $5229 85 A1    STA $A1
  $522B A6 A1    LDX $A1
  $522D A5 A0    LDA $A0
  $522F 20 9B 38 JSR $389B ; sign $389B
  $5232 A5 A1    LDA $A1
  $5234 8D FB 50 STA $50FB ; xd+1 $50FB
  $5237 A5 A0    LDA $A0
  $5239 8D FA 50 STA $50FA ; xd $50FA
  $523C 38       SEC
  $523D A9 0B    LDA #$0B
  $523F ED 00 51 SBC $5100 ; yy $5100
  $5242 85 A0    STA $A0
  $5244 A9 00    LDA #$00
  $5246 ED 01 51 SBC $5101 ; yy+1 $5101
  $5249 85 A1    STA $A1
  $524B A6 A1    LDX $A1
  $524D A5 A0    LDA $A0
  $524F 20 9B 38 JSR $389B ; sign $389B
  $5252 A5 A1    LDA $A1
  $5254 8D FD 50 STA $50FD ; yd+1 $50FD
  $5257 A5 A0    LDA $A0
  $5259 8D FC 50 STA $50FC ; yd $50FC
  $525C AE F9 50 LDX $50F9 ; n $50F9
  $525F BD 25 34 LDA $3425,X ; x $3425
  $5262 85 A0    STA $A0
  $5264 AE F9 50 LDX $50F9 ; n $50F9
  $5267 BD 24 35 LDA $3524,X ; y $3524
  $526A 85 A1    STA $A1
  $526C AC 01 30 LDY $3001 ; bl $3001
  $526F A6 A1    LDX $A1
  $5271 A5 A0    LDA $A0
  $5273 20 6E 3B JSR $3B6E ; plot1 $3B6E
  $5276 18       CLC
  $5277 AE F9 50 LDX $50F9 ; n $50F9
  $527A BD 25 34 LDA $3425,X ; x $3425
  $527D 6D FA 50 ADC $50FA ; xd $50FA
  $5280 AE F9 50 LDX $50F9 ; n $50F9
  $5283 9D 25 34 STA $3425,X ; x $3425
  $5286 18       CLC
  $5287 AE F9 50 LDX $50F9 ; n $50F9
  $528A BD 24 35 LDA $3524,X ; y $3524
  $528D 6D FC 50 ADC $50FC ; yd $50FC
  $5290 AE F9 50 LDX $50F9 ; n $50F9
  $5293 9D 24 35 STA $3524,X ; y $3524
  $5296 AE F9 50 LDX $50F9 ; n $50F9
  $5299 BD 25 34 LDA $3425,X ; x $3425
  $529C 85 A0    STA $A0
  $529E AE F9 50 LDX $50F9 ; n $50F9
  $52A1 BD 24 35 LDA $3524,X ; y $3524
  $52A4 85 A1    STA $A1
  $52A6 AE F9 50 LDX $50F9 ; n $50F9
  $52A9 BD 1E 33 LDA $331E,X ; image $331E
  $52AC 85 A2    STA $A2
  $52AE A4 A2    LDY $A2
  $52B0 A6 A1    LDX $A1
  $52B2 A5 A0    LDA $A0
  $52B4 20 6E 3B JSR $3B6E ; plot1 $3B6E
L52B7:
  $52B7 EE F9 50 INC $50F9 ; n $50F9
  $52BA 4C DC 51 JMP $51DC ; L51DC
L52BD:
  $52BD 20 BF 4B JSR $4BBF ; tick $4BBF
  $52C0 20 BF 4B JSR $4BBF ; tick $4BBF
  $52C3 EE F8 50 INC $50F8 ; i $50F8
  $52C6 4C 7C 51 JMP $517C ; L517C
L52C9:
  $52C9 20 21 A7 JSR $A721 ; LA721
  $52CC AC 01 30 LDY $3001 ; bl $3001
  $52CF A2 0B    LDX #$0B
  $52D1 A9 09    LDA #$09
  $52D3 20 6E 3B JSR $3B6E ; plot1 $3B6E
  $52D6 AD F7 50 LDA $50F7 ; r $50F7
  $52D9 20 A4 4E JSR $4EA4 ; plotim $4EA4
  $52DC 60       RTS
a: ; snapshot BYTE
  $52DD 00       BRK
b: ; snapshot BYTE
  $52DE 00       BRK
i: ; snapshot BYTE
  $52DF 00       BRK
j: ; snapshot BYTE
  $52E0 00       BRK
rdmize: ; final PROC
  $52E1 4C E4 52 JMP $52E4 ; L52E4
L52E4:
  $52E4 A0 00    LDY #$00
  $52E6 8C DD 52 STY $52DD ; a $52DD
L52E9:
  $52E9 A9 10    LDA #$10
  $52EB CD DD 52 CMP $52DD ; a $52DD
  $52EE B0 03    BCS $52F3 ; L52F3
  $52F0 4C 64 53 JMP $5364 ; L5364
L52F3:
  $52F3 A0 00    LDY #$00
  $52F5 8C DE 52 STY $52DE ; b $52DE
L52F8:
  $52F8 A9 06    LDA #$06
  $52FA CD DE 52 CMP $52DE ; b $52DE
  $52FD B0 03    BCS $5302 ; L5302
  $52FF 4C 5E 53 JMP $535E ; L535E
L5302:
  $5302 A9 00    LDA #$00
  $5304 85 85    STA $85
  $5306 A9 07    LDA #$07
  $5308 85 84    STA $84
  $530A AD DD 52 LDA $52DD ; a $52DD
  $530D A2 00    LDX #$00
  $530F 20 00 A0 JSR $A000 ; LA000
  $5312 85 AE    STA $AE
  $5314 8A       TXA
  $5315 85 AF    STA $AF
  $5317 18       CLC
  $5318 AD DE 52 LDA $52DE ; b $52DE
  $531B 65 AE    ADC $AE
  $531D 85 AC    STA $AC
  $531F A9 00    LDA #$00
  $5321 65 AF    ADC $AF
  $5323 85 AD    STA $AD
  $5325 AD DD 52 LDA $52DD ; a $52DD
  $5328 A6 AC    LDX $AC
  $532A 9D 23 36 STA $3623,X ; bx $3623
  $532D A9 00    LDA #$00
  $532F 85 85    STA $85
  $5331 A9 07    LDA #$07
  $5333 85 84    STA $84
  $5335 AD DD 52 LDA $52DD ; a $52DD
  $5338 A2 00    LDX #$00
  $533A 20 00 A0 JSR $A000 ; LA000
  $533D 85 AE    STA $AE
  $533F 8A       TXA
  $5340 85 AF    STA $AF
  $5342 18       CLC
  $5343 AD DE 52 LDA $52DE ; b $52DE
  $5346 65 AE    ADC $AE
  $5348 85 AC    STA $AC
  $534A A9 00    LDA #$00
  $534C 65 AF    ADC $AF
  $534E 85 AD    STA $AD
  $5350 AD DE 52 LDA $52DE ; b $52DE
  $5353 A6 AC    LDX $AC
  $5355 9D 22 37 STA $3722,X ; by $3722
  $5358 EE DE 52 INC $52DE ; b $52DE
  $535B 4C F8 52 JMP $52F8 ; L52F8
L535E:
  $535E EE DD 52 INC $52DD ; a $52DD
  $5361 4C E9 52 JMP $52E9 ; L52E9
L5364:
  $5364 A0 00    LDY #$00
  $5366 8C DF 52 STY $52DF ; i $52DF
L5369:
  $5369 A9 76    LDA #$76
  $536B CD DF 52 CMP $52DF ; i $52DF
  $536E B0 03    BCS $5373 ; L5373
  $5370 4C BF 53 JMP $53BF ; L53BF
L5373:
  $5373 A9 77    LDA #$77
  $5375 20 F1 A6 JSR $A6F1 ; LA6F1
  $5378 A5 A0    LDA $A0
  $537A 8D E0 52 STA $52E0 ; j $52E0
  $537D AE DF 52 LDX $52DF ; i $52DF
  $5380 BD 23 36 LDA $3623,X ; bx $3623
  $5383 8D DD 52 STA $52DD ; a $52DD
  $5386 AE DF 52 LDX $52DF ; i $52DF
  $5389 BD 22 37 LDA $3722,X ; by $3722
  $538C 8D DE 52 STA $52DE ; b $52DE
  $538F AE E0 52 LDX $52E0 ; j $52E0
  $5392 BD 23 36 LDA $3623,X ; bx $3623
  $5395 AE DF 52 LDX $52DF ; i $52DF
  $5398 9D 23 36 STA $3623,X ; bx $3623
  $539B AE E0 52 LDX $52E0 ; j $52E0
  $539E BD 22 37 LDA $3722,X ; by $3722
  $53A1 AE DF 52 LDX $52DF ; i $52DF
  $53A4 9D 22 37 STA $3722,X ; by $3722
  $53A7 AD DD 52 LDA $52DD ; a $52DD
  $53AA AE E0 52 LDX $52E0 ; j $52E0
  $53AD 9D 23 36 STA $3623,X ; bx $3623
  $53B0 AD DE 52 LDA $52DE ; b $52DE
  $53B3 AE E0 52 LDX $52E0 ; j $52E0
  $53B6 9D 22 37 STA $3722,X ; by $3722
  $53B9 EE DF 52 INC $52DF ; i $52DF
  $53BC 4C 69 53 JMP $5369 ; L5369
L53BF:
  $53BF 60       RTS
x: ; snapshot BYTE
  $53C0 00       BRK
y: ; snapshot BYTE
  $53C1 00       BRK
g: ; snapshot BYTE
  $53C2 00       BRK
h: ; snapshot BYTE
  $53C3 00       BRK
f: ; snapshot BYTE
  $53C4 00       BRK
freq: ; snapshot BYTE
  $53C5 00       BRK
a: ; snapshot CARD
  $53C6 00       BRK
  $53C7 00       BRK
b: ; snapshot CARD
  $53C8 00       BRK
  $53C9 00       BRK
loop: ; snapshot CARD
  $53CA 00       BRK
  $53CB 00       BRK
gwarp: ; final PROC
  $53CC 4C CF 53 JMP $53CF ; L53CF
L53CF:
  $53CF 8E C1 53 STX $53C1 ; y $53C1
  $53D2 8D C0 53 STA $53C0 ; x $53C0
L53D5:
  $53D5 A9 03    LDA #$03
  $53D7 20 F1 A6 JSR $A6F1 ; LA6F1
  $53DA 38       SEC
  $53DB A5 A0    LDA $A0
  $53DD E9 01    SBC #$01
  $53DF 8D C6 53 STA $53C6 ; a $53C6
  $53E2 A9 00    LDA #$00
  $53E4 8D C7 53 STA $53C7 ; a+1 $53C7
  $53E7 A9 03    LDA #$03
  $53E9 20 F1 A6 JSR $A6F1 ; LA6F1
  $53EC 38       SEC
  $53ED A5 A0    LDA $A0
  $53EF E9 01    SBC #$01
  $53F1 8D C8 53 STA $53C8 ; b $53C8
  $53F4 A9 00    LDA #$00
  $53F6 8D C9 53 STA $53C9 ; b+1 $53C9
  $53F9 AD C6 53 LDA $53C6 ; a $53C6
  $53FC 0D C7 53 ORA $53C7 ; a+1 $53C7
  $53FF D0 0B    BNE $540C ; L540C
  $5401 AD C8 53 LDA $53C8 ; b $53C8
  $5404 0D C9 53 ORA $53C9 ; b+1 $53C9
  $5407 D0 03    BNE $540C ; L540C
  $5409 4C D5 53 JMP $53D5 ; L53D5
L540C:
  $540C AE C1 53 LDX $53C1 ; y $53C1
  $540F AD C0 53 LDA $53C0 ; x $53C0
  $5412 20 B3 3B JSR $3BB3 ; locate1 $3BB3
  $5415 A5 A0    LDA $A0
  $5417 8D C2 53 STA $53C2 ; g $53C2
  $541A A0 00    LDY #$00
  $541C 8C C4 53 STY $53C4 ; f $53C4
  $541F 8C C5 53 STY $53C5 ; freq $53C5
L5422:
  $5422 18       CLC
  $5423 AD C0 53 LDA $53C0 ; x $53C0
  $5426 6D C6 53 ADC $53C6 ; a $53C6
  $5429 85 A0    STA $A0
  $542B 18       CLC
  $542C AD C1 53 LDA $53C1 ; y $53C1
  $542F 6D C8 53 ADC $53C8 ; b $53C8
  $5432 85 A1    STA $A1
  $5434 A6 A1    LDX $A1
  $5436 A5 A0    LDA $A0
  $5438 20 B3 3B JSR $3BB3 ; locate1 $3BB3
  $543B A5 A0    LDA $A0
  $543D 8D C3 53 STA $53C3 ; h $53C3
  $5440 AC C4 53 LDY $53C4 ; f $53C4
  $5443 AE C1 53 LDX $53C1 ; y $53C1
  $5446 AD C0 53 LDA $53C0 ; x $53C0
  $5449 20 6E 3B JSR $3B6E ; plot1 $3B6E
  $544C AD C3 53 LDA $53C3 ; h $53C3
  $544F 8D C4 53 STA $53C4 ; f $53C4
  $5452 18       CLC
L5453:
  $5453 AD C0 53 LDA $53C0 ; x $53C0
  $5456 6D C6 53 ADC $53C6 ; a $53C6
  $5459 8D C0 53 STA $53C0 ; x $53C0
  $545C 18       CLC
  $545D AD C1 53 LDA $53C1 ; y $53C1
  $5460 6D C8 53 ADC $53C8 ; b $53C8
  $5463 8D C1 53 STA $53C1 ; y $53C1
  $5466 AC C2 53 LDY $53C2 ; g $53C2
  $5469 AE C1 53 LDX $53C1 ; y $53C1
  $546C AD C0 53 LDA $53C0 ; x $53C0
  $546F 20 6E 3B JSR $3B6E ; plot1 $3B6E
  $5472 EE C5 53 INC $53C5 ; freq $53C5
  $5475 A9 00    LDA #$00
  $5477 85 85    STA $85
  $5479 A9 0A    LDA #$0A
  $547B 85 84    STA $84
  $547D AD C5 53 LDA $53C5 ; freq $53C5
  $5480 A2 00    LDX #$00
  $5482 20 00 A0 JSR $A000 ; LA000
  $5485 85 A1    STA $A1
  $5487 A9 0F    LDA #$0F
  $5489 85 A3    STA $A3
  $548B A0 08    LDY #$08
  $548D A6 A1    LDX $A1
  $548F A9 00    LDA #$00
  $5491 20 04 A7 JSR $A704 ; LA704
  $5494 AD C1 53 LDA $53C1 ; y $53C1
  $5497 F0 16    BEQ $54AF ; L54AF
  $5499 AD C1 53 LDA $53C1 ; y $53C1
  $549C 49 17    EOR #$17
  $549E F0 0F    BEQ $54AF ; L54AF
  $54A0 AD C0 53 LDA $53C0 ; x $53C0
  $54A3 F0 0A    BEQ $54AF ; L54AF
  $54A5 AD C0 53 LDA $53C0 ; x $53C0
  $54A8 49 13    EOR #$13
  $54AA F0 03    BEQ $54AF ; L54AF
  $54AC 4C B2 54 JMP $54B2 ; L54B2
L54AF:
  $54AF 4C D8 54 JMP $54D8 ; L54D8
L54B2:
  $54B2 A0 00    LDY #$00
  $54B4 8C CB 53 STY $53CB ; loop+1 $53CB
  $54B7 C8       INY
  $54B8 8C CA 53 STY $53CA ; loop $53CA
L54BB:
  $54BB A9 EE    LDA #$EE
  $54BD CD CA 53 CMP $53CA ; loop $53CA
  $54C0 A9 02    LDA #$02
  $54C2 ED CB 53 SBC $53CB ; loop+1 $53CB
  $54C5 B0 03    BCS $54CA ; L54CA
  $54C7 4C D5 54 JMP $54D5 ; L54D5
L54CA:
  $54CA EE CA 53 INC $53CA ; loop $53CA
  $54CD D0 EC    BNE $54BB ; L54BB
  $54CF EE CB 53 INC $53CB ; loop+1 $53CB
  $54D2 4C BB 54 JMP $54BB ; L54BB
L54D5:
  $54D5 4C 22 54 JMP $5422 ; L5422
L54D8:
  $54D8 AC C4 53 LDY $53C4 ; f $53C4
  $54DB AE C1 53 LDX $53C1 ; y $53C1
  $54DE AD C0 53 LDA $53C0 ; x $53C0
  $54E1 20 6E 3B JSR $3B6E ; plot1 $3B6E
  $54E4 20 21 A7 JSR $A721 ; LA721
  $54E7 60       RTS
x: ; snapshot BYTE
  $54E8 00       BRK
y: ; snapshot BYTE
  $54E9 00       BRK
i: ; snapshot BYTE
  $54EA 00       BRK
c: ; snapshot BYTE
  $54EB 00       BRK
a: ; snapshot BYTE
  $54EC 00       BRK
b: ; snapshot BYTE
  $54ED 00       BRK
titles: ; final PROC
  $54EE 4C F1 54 JMP $54F1 ; L54F1
L54F1:
  $54F1 20 99 3A JSR $3A99 ; scrninit $3A99
  $54F4 A9 0C    LDA #$0C
  $54F6 8D FD 02 STA $02FD
  $54F9 A9 02    LDA #$02
  $54FB 8D E8 54 STA $54E8 ; x $54E8
  $54FE A9 08    LDA #$08
  $5500 8D E9 54 STA $54E9 ; y $54E9
  $5503 18       CLC
  $5504 AD E8 54 LDA $54E8 ; x $54E8
  $5507 69 04    ADC #$04
  $5509 85 A0    STA $A0
  $550B A9 00    LDA #$00
  $550D 85 A1    STA $A1
  $550F AC E9 54 LDY $54E9 ; y $54E9
  $5512 A6 A1    LDX $A1
  $5514 A5 A0    LDA $A0
  $5516 20 C3 A6 JSR $A6C3 ; LA6C3
  $5519 AC E9 54 LDY $54E9 ; y $54E9
  $551C A2 00    LDX #$00
  $551E AD E8 54 LDA $54E8 ; x $54E8
  $5521 20 8C A6 JSR $A68C ; LA68C
  $5524 18       CLC
  $5525 AD E9 54 LDA $54E9 ; y $54E9
  $5528 69 06    ADC #$06
  $552A 85 A2    STA $A2
  $552C A4 A2    LDY $A2
  $552E A2 00    LDX #$00
  $5530 AD E8 54 LDA $54E8 ; x $54E8
  $5533 20 8C A6 JSR $A68C ; LA68C
  $5536 18       CLC
  $5537 AD E8 54 LDA $54E8 ; x $54E8
  $553A 69 04    ADC #$04
  $553C 85 A0    STA $A0
  $553E A9 00    LDA #$00
  $5540 85 A1    STA $A1
  $5542 18       CLC
  $5543 AD E9 54 LDA $54E9 ; y $54E9
  $5546 69 06    ADC #$06
  $5548 85 A2    STA $A2
  $554A A4 A2    LDY $A2
  $554C A6 A1    LDX $A1
  $554E A5 A0    LDA $A0
  $5550 20 8C A6 JSR $A68C ; LA68C
  $5553 18       CLC
  $5554 AD E8 54 LDA $54E8 ; x $54E8
  $5557 69 04    ADC #$04
  $5559 85 A0    STA $A0
  $555B A9 00    LDA #$00
  $555D 85 A1    STA $A1
  $555F 18       CLC
  $5560 AD E9 54 LDA $54E9 ; y $54E9
  $5563 69 03    ADC #$03
  $5565 85 A2    STA $A2
  $5567 A4 A2    LDY $A2
  $5569 A6 A1    LDX $A1
  $556B A5 A0    LDA $A0
  $556D 20 8C A6 JSR $A68C ; LA68C
  $5570 18       CLC
  $5571 AD E8 54 LDA $54E8 ; x $54E8
  $5574 69 02    ADC #$02
  $5576 85 A0    STA $A0
  $5578 A9 00    LDA #$00
  $557A 85 A1    STA $A1
  $557C 18       CLC
  $557D AD E9 54 LDA $54E9 ; y $54E9
  $5580 69 03    ADC #$03
  $5582 85 A2    STA $A2
  $5584 A4 A2    LDY $A2
  $5586 A6 A1    LDX $A1
  $5588 A5 A0    LDA $A0
  $558A 20 8C A6 JSR $A68C ; LA68C
  $558D 18       CLC
  $558E AD E8 54 LDA $54E8 ; x $54E8
  $5591 69 0A    ADC #$0A
  $5593 85 A0    STA $A0
  $5595 A9 00    LDA #$00
  $5597 85 A1    STA $A1
  $5599 AC E9 54 LDY $54E9 ; y $54E9
  $559C A6 A1    LDX $A1
  $559E A5 A0    LDA $A0
  $55A0 20 C3 A6 JSR $A6C3 ; LA6C3
  $55A3 18       CLC
  $55A4 AD E8 54 LDA $54E8 ; x $54E8
  $55A7 69 06    ADC #$06
  $55A9 85 A0    STA $A0
  $55AB A9 00    LDA #$00
  $55AD 85 A1    STA $A1
  $55AF AC E9 54 LDY $54E9 ; y $54E9
  $55B2 A6 A1    LDX $A1
  $55B4 A5 A0    LDA $A0
  $55B6 20 8C A6 JSR $A68C ; LA68C
  $55B9 18       CLC
  $55BA AD E8 54 LDA $54E8 ; x $54E8
  $55BD 69 06    ADC #$06
  $55BF 85 A0    STA $A0
  $55C1 A9 00    LDA #$00
  $55C3 85 A1    STA $A1
  $55C5 18       CLC
  $55C6 AD E9 54 LDA $54E9 ; y $54E9
  $55C9 69 06    ADC #$06
  $55CB 85 A2    STA $A2
  $55CD A4 A2    LDY $A2
  $55CF A6 A1    LDX $A1
  $55D1 A5 A0    LDA $A0
  $55D3 20 8C A6 JSR $A68C ; LA68C
  $55D6 18       CLC
  $55D7 AD E8 54 LDA $54E8 ; x $54E8
  $55DA 69 0A    ADC #$0A
  $55DC 85 A0    STA $A0
  $55DE A9 00    LDA #$00
  $55E0 85 A1    STA $A1
  $55E2 18       CLC
  $55E3 AD E9 54 LDA $54E9 ; y $54E9
  $55E6 69 06    ADC #$06
  $55E8 85 A2    STA $A2
  $55EA A4 A2    LDY $A2
  $55EC A6 A1    LDX $A1
  $55EE A5 A0    LDA $A0
  $55F0 20 8C A6 JSR $A68C ; LA68C
  $55F3 18       CLC
  $55F4 AD E8 54 LDA $54E8 ; x $54E8
  $55F7 69 07    ADC #$07
  $55F9 85 A0    STA $A0
  $55FB A9 00    LDA #$00
  $55FD 85 A1    STA $A1
  $55FF 18       CLC
  $5600 AD E9 54 LDA $54E9 ; y $54E9
  $5603 69 03    ADC #$03
  $5605 85 A2    STA $A2
  $5607 A4 A2    LDY $A2
  $5609 A6 A1    LDX $A1
  $560B A5 A0    LDA $A0
  $560D 20 C3 A6 JSR $A6C3 ; LA6C3
  $5610 18       CLC
  $5611 AD E8 54 LDA $54E8 ; x $54E8
  $5614 69 08    ADC #$08
  $5616 85 A0    STA $A0
  $5618 A9 00    LDA #$00
  $561A 85 A1    STA $A1
  $561C 18       CLC
  $561D AD E9 54 LDA $54E9 ; y $54E9
  $5620 69 03    ADC #$03
  $5622 85 A2    STA $A2
  $5624 A4 A2    LDY $A2
  $5626 A6 A1    LDX $A1
  $5628 A5 A0    LDA $A0
  $562A 20 C3 A6 JSR $A6C3 ; LA6C3
  $562D 18       CLC
  $562E AD E8 54 LDA $54E8 ; x $54E8
  $5631 69 0C    ADC #$0C
  $5633 85 A0    STA $A0
  $5635 A9 00    LDA #$00
  $5637 85 A1    STA $A1
  $5639 18       CLC
  $563A AD E9 54 LDA $54E9 ; y $54E9
  $563D 69 06    ADC #$06
  $563F 85 A2    STA $A2
  $5641 A4 A2    LDY $A2
  $5643 A6 A1    LDX $A1
  $5645 A5 A0    LDA $A0
  $5647 20 C3 A6 JSR $A6C3 ; LA6C3
  $564A 18       CLC
  $564B AD E8 54 LDA $54E8 ; x $54E8
  $564E 69 0C    ADC #$0C
  $5650 85 A0    STA $A0
  $5652 A9 00    LDA #$00
  $5654 85 A1    STA $A1
  $5656 AC E9 54 LDY $54E9 ; y $54E9
  $5659 A6 A1    LDX $A1
  $565B A5 A0    LDA $A0
  $565D 20 8C A6 JSR $A68C ; LA68C
  $5660 18       CLC
  $5661 AD E8 54 LDA $54E8 ; x $54E8
  $5664 69 0E    ADC #$0E
  $5666 85 A0    STA $A0
  $5668 A9 00    LDA #$00
  $566A 85 A1    STA $A1
  $566C 18       CLC
  $566D AD E9 54 LDA $54E9 ; y $54E9
  $5670 69 02    ADC #$02
  $5672 85 A2    STA $A2
  $5674 A4 A2    LDY $A2
  $5676 A6 A1    LDX $A1
  $5678 A5 A0    LDA $A0
  $567A 20 8C A6 JSR $A68C ; LA68C
  $567D 18       CLC
  $567E AD E8 54 LDA $54E8 ; x $54E8
  $5681 69 10    ADC #$10
  $5683 85 A0    STA $A0
  $5685 A9 00    LDA #$00
  $5687 85 A1    STA $A1
  $5689 AC E9 54 LDY $54E9 ; y $54E9
  $568C A6 A1    LDX $A1
  $568E A5 A0    LDA $A0
  $5690 20 8C A6 JSR $A68C ; LA68C
  $5693 18       CLC
  $5694 AD E8 54 LDA $54E8 ; x $54E8
  $5697 69 10    ADC #$10
  $5699 85 A0    STA $A0
  $569B A9 00    LDA #$00
  $569D 85 A1    STA $A1
  $569F 18       CLC
  $56A0 AD E9 54 LDA $54E9 ; y $54E9
  $56A3 69 06    ADC #$06
  $56A5 85 A2    STA $A2
  $56A7 A4 A2    LDY $A2
  $56A9 A6 A1    LDX $A1
  $56AB A5 A0    LDA $A0
  $56AD 20 8C A6 JSR $A68C ; LA68C
  $56B0 20 E1 52 JSR $52E1 ; rdmize $52E1
  $56B3 A0 01    LDY #$01
  $56B5 8C EA 54 STY $54EA ; i $54EA
L56B8:
  $56B8 A9 78    LDA #$78
  $56BA CD EA 54 CMP $54EA ; i $54EA
  $56BD B0 03    BCS $56C2 ; L56C2
  $56BF 4C 00 57 JMP $5700 ; L5700
L56C2:
  $56C2 AD EA 54 LDA $54EA ; i $54EA
  $56C5 4A       LSR A
  $56C6 4A       LSR A
  $56C7 4A       LSR A
  $56C8 85 A3    STA $A3
  $56CA A0 0A    LDY #$0A
  $56CC A2 FF    LDX #$FF
  $56CE A9 00    LDA #$00
  $56D0 20 04 A7 JSR $A704 ; LA704
  $56D3 AD EA 54 LDA $54EA ; i $54EA
  $56D6 4A       LSR A
  $56D7 4A       LSR A
  $56D8 4A       LSR A
  $56D9 85 A3    STA $A3
  $56DB A0 0A    LDY #$0A
  $56DD A2 FE    LDX #$FE
  $56DF A9 01    LDA #$01
  $56E1 20 04 A7 JSR $A704 ; LA704
  $56E4 18       CLC
  $56E5 AD EB 54 LDA $54EB ; c $54EB
  $56E8 69 03    ADC #$03
  $56EA 8D EB 54 STA $54EB ; c $54EB
  $56ED AC EB 54 LDY $54EB ; c $54EB
  $56F0 A2 02    LDX #$02
  $56F2 A9 C5    LDA #$C5
  $56F4 20 77 A7 JSR $A777 ; LA777
  $56F7 20 BF 4B JSR $4BBF ; tick $4BBF
  $56FA EE EA 54 INC $54EA ; i $54EA
  $56FD 4C B8 56 JMP $56B8 ; L56B8
L5700:
  $5700 A0 78    LDY #$78
  $5702 A2 02    LDX #$02
  $5704 A9 C5    LDA #$C5
  $5706 20 77 A7 JSR $A777 ; LA777
  $5709 20 21 A7 JSR $A721 ; LA721
  $570C A0 00    LDY #$00
  $570E 8C EA 54 STY $54EA ; i $54EA
L5711:
  $5711 A9 76    LDA #$76
  $5713 CD EA 54 CMP $54EA ; i $54EA
  $5716 B0 03    BCS $571B ; L571B
  $5718 4C 6C 57 JMP $576C ; L576C
L571B:
  $571B AE EA 54 LDX $54EA ; i $54EA
  $571E BD 23 36 LDA $3623,X ; bx $3623
  $5721 8D EC 54 STA $54EC ; a $54EC
  $5724 AE EA 54 LDX $54EA ; i $54EA
  $5727 BD 22 37 LDA $3722,X ; by $3722
  $572A 8D ED 54 STA $54ED ; b $54ED
  $572D 18       CLC
  $572E AD EC 54 LDA $54EC ; a $54EC
  $5731 6D E8 54 ADC $54E8 ; x $54E8
  $5734 85 A0    STA $A0
  $5736 18       CLC
  $5737 AD ED 54 LDA $54ED ; b $54ED
  $573A 6D E9 54 ADC $54E9 ; y $54E9
  $573D 85 A1    STA $A1
  $573F A6 A1    LDX $A1
  $5741 A5 A0    LDA $A0
  $5743 20 B3 3B JSR $3BB3 ; locate1 $3BB3
  $5746 A5 A0    LDA $A0
  $5748 D0 03    BNE $574D ; L574D
  $574A 4C 66 57 JMP $5766 ; L5766
L574D:
  $574D 18       CLC
  $574E AD EC 54 LDA $54EC ; a $54EC
  $5751 6D E8 54 ADC $54E8 ; x $54E8
  $5754 85 A0    STA $A0
  $5756 18       CLC
  $5757 AD ED 54 LDA $54ED ; b $54ED
  $575A 6D E9 54 ADC $54E9 ; y $54E9
  $575D 85 A1    STA $A1
  $575F A6 A1    LDX $A1
  $5761 A5 A0    LDA $A0
  $5763 20 CC 53 JSR $53CC ; gwarp $53CC
L5766:
  $5766 EE EA 54 INC $54EA ; i $54EA
  $5769 4C 11 57 JMP $5711 ; L5711
L576C:
  $576C 60       RTS
num: ; final CARD
  $576D 00       BRK
  $576E 00       BRK
game: ; final PROC
  $576F 4C 72 57 JMP $5772 ; L5772
L5772:
  $5772 A9 01    LDA #$01
  $5774 20 79 A4 JSR $A479 ; LA479
  $5777 4C 7D 57 JMP $577D ; L577D
  $577A 02       .BYTE $02
  $577B 4B       .BYTE $4B
  $577C 3A       .BYTE $3A
L577D:
  $577D A9 04    LDA #$04
  $577F 85 A3    STA $A3
  $5781 A9 01    LDA #$01
  $5783 85 A4    STA $A4
  $5785 A0 57    LDY #$57
  $5787 A2 7A    LDX #$7A
  $5789 A9 01    LDA #$01
  $578B 20 44 A4 JSR $A444 ; LA444
  $578E 20 EE 54 JSR $54EE ; titles $54EE
L5791:
  $5791 20 3B 4D JSR $4D3B ; intro $4D3B
  $5794 20 38 38 JSR $3838 ; reset $3838
L5797:
  $5797 A9 01    LDA #$01
  $5799 CD 0B 30 CMP $300B ; playto $300B
  $579C 90 03    BCC $57A1 ; L57A1
  $579E 4C E9 57 JMP $57E9 ; L57E9
L57A1:
  $57A1 A9 00    LDA #$00
  $57A3 85 85    STA $85
  $57A5 AD 0C 30 LDA $300C ; maxbots $300C
  $57A8 85 84    STA $84
  $57AA AE 0A 30 LDX $300A ; winning $300A
  $57AD BD 21 38 LDA $3821,X ; score $3821
  $57B0 A2 00    LDX #$00
  $57B2 20 00 A0 JSR $A000 ; LA000
  $57B5 85 AE    STA $AE
  $57B7 8A       TXA
  $57B8 85 AF    STA $AF
  $57BA 38       SEC
  $57BB AD 0B 30 LDA $300B ; playto $300B
  $57BE E9 01    SBC #$01
  $57C0 85 AC    STA $AC
  $57C2 A9 00    LDA #$00
  $57C4 85 85    STA $85
  $57C6 A5 AC    LDA $AC
  $57C8 85 84    STA $84
  $57CA A5 AF    LDA $AF
  $57CC AA       TAX
  $57CD A5 AE    LDA $AE
  $57CF 20 90 A0 JSR $A090 ; LA090
  $57D2 85 AA    STA $AA
  $57D4 8A       TXA
  $57D5 85 AB    STA $AB
  $57D7 18       CLC
  $57D8 A9 04    LDA #$04
  $57DA 65 AA    ADC $AA
  $57DC 8D 6D 57 STA $576D ; num $576D
  $57DF A9 00    LDA #$00
  $57E1 65 AB    ADC $AB
  $57E3 8D 6E 57 STA $576E ; num+1 $576E
  $57E6 4C F7 57 JMP $57F7 ; L57F7
L57E9:
  $57E9 18       CLC
  $57EA A9 04    LDA #$04
  $57EC 6D 0C 30 ADC $300C ; maxbots $300C
  $57EF 8D 6D 57 STA $576D ; num $576D
  $57F2 A9 00    LDA #$00
  $57F4 8D 6E 57 STA $576E ; num+1 $576E
L57F7:
  $57F7 AE 6E 57 LDX $576E ; num+1 $576E
  $57FA AD 6D 57 LDA $576D ; num $576D
  $57FD 20 E9 4B JSR $4BE9 ; round $4BE9
  $5800 EE 6D 57 INC $576D ; num $576D
  $5803 D0 03    BNE $5808 ; L5808
  $5805 EE 6E 57 INC $576E ; num+1 $576E
L5808:
  $5808 38       SEC
  $5809 AD 09 30 LDA $3009 ; winner $3009
  $580C E9 01    SBC #$01
  $580E 85 AE    STA $AE
  $5810 A6 AE    LDX $AE
  $5812 BD 21 38 LDA $3821,X ; score $3821
  $5815 4D 0B 30 EOR $300B ; playto $300B
  $5818 F0 03    BEQ $581D ; L581D
  $581A 4C 97 57 JMP $5797 ; L5797
L581D:
  $581D 38       SEC
  $581E AD 09 30 LDA $3009 ; winner $3009
  $5821 E9 01    SBC #$01
  $5823 85 A0    STA $A0
  $5825 A5 A0    LDA $A0
  $5827 20 02 51 JSR $5102 ; announce $5102
  $582A 20 18 4E JSR $4E18 ; playagain $4E18
  $582D A5 A0    LDA $A0
  $582F F0 03    BEQ $5834 ; L5834
  $5831 4C 91 57 JMP $5791 ; L5791
L5834:
  $5834 A9 01    LDA #$01
  $5836 20 79 A4 JSR $A479 ; LA479
  $5839 60       RTS
  $583A 60       RTS

== compat ==
load bytes: 11414  code bytes: 11402  code origin: $3000
segments:
  00: $3000-$5C89 len 11402 header_off     2 data_off     6
  01: $02E2-$02E3 len     2 header_off 11408 data_off 11412
      RUNAD $02E2 = $5BB7
opcode counts:
  $00 BRK      2186
  $01 ORA      20
  $02 .BYTE    8
  $04 .BYTE    2
  $05 ORA      1
  $06 .BYTE    1
  $08 PHP      48
  $0A ASL      48
  $0D ORA      2
  $10 BPL      4
  $11 ORA      2
  $14 .BYTE    1
  $16 ASL      1
  $17 .BYTE    2
  $18 CLC      187
  $1A .BYTE    2
  $1B .BYTE    1
  $20 JSR      260
  $21 AND      1
  $24 BIT      2
  $25 AND      12
  $26 ROL      1
  $28 PLP      47
  $29 AND      4
  $2A ROL      47
  $2E ROL      2
  $30 BMI      4
  $33 .BYTE    1
  $38 SEC      29
  $3A .BYTE    3
  $3C .BYTE    1
  $3F .BYTE    1
  $40 RTI      1
  $41 EOR      1
  $42 .BYTE    1
  $43 .BYTE    1
  $44 .BYTE    2
  $45 EOR      9
  $46 LSR      1
  $48 PHA      16
  $49 EOR      28
  $4A LSR      6
  $4B .BYTE    1
  $4C JMP      227
  $4D EOR      11
  $50 BVC      2
  $52 .BYTE    2
  $54 .BYTE    1
  $55 EOR      2
  $5A .BYTE    1
  $5C .BYTE    2
  $5E LSR      1
  $60 RTS      62
  $61 ADC      4
  $62 .BYTE    3
  $63 .BYTE    1
  $64 .BYTE    3
  $65 ADC      26
  $66 ROR      1
  $67 .BYTE    1
  $68 PLA      14
  $69 ADC      107
  $6B .BYTE    1
  $6C JMP      1
  $6D ADC      153
  $6E ROR      7
  $6F .BYTE    11
  $70 BVS      1
  $72 .BYTE    7
  $73 .BYTE    4
  $74 .BYTE    3
  $75 ADC      2
  $76 ROR      1
  $77 .BYTE    2
  $79 ADC      2
  $7C .BYTE    1
  $7E ROR      4
  $80 .BYTE    1
  $81 STA      3
  $85 STA      590
  $86 STX      1
  $88 DEY      20
  $89 .BYTE    1
  $8A TXA      6
  $8C STY      46
  $8D STA      89
  $8E STX      6
  $90 BCC      31
  $91 STA      17
  $98 TYA      1
  $99 STA      1
  $9D STA      47
  $A0 LDY      98
  $A2 LDX      76
  $A4 LDY      30
  $A5 LDA      234
  $A6 LDX      61
  $A9 LDA      386
  $AA TAX      11
  $AC LDY      32
  $AD LDA      267
  $AE LDX      159
  $B0 BCS      29
  $B1 LDA      51
  $B2 .BYTE    1
  $BD LDA      102
  $C3 .BYTE    3
  $C5 CMP      14
  $C8 INY      13
  $C9 CMP      25
  $CC CPY      1
  $CD CMP      37
  $D0 BNE      31
  $D1 CMP      4
  $DB .BYTE    2
  $DE DEC      1
  $E5 SBC      5
  $E7 .BYTE    2
  $E9 SBC      13
  $ED SBC      19
  $EE INC      41
  $F0 BEQ      58
  $F1 SBC      1
  $FE INC      6
  $FF .BYTE    13

== map: compat ==
origin $3000  run $5BB7  routines 40  symbols 135  skipped 6
routines:
  reset                    $3837-$3858 len    34
  pauz                     $3859-$388A len    50
  sign                     $388B-$38D5 len    75
  gr1init                  $38D6-$3982 len   173
  charpats                 $3983-$3A89 len   263
  scrninit                 $3A8A-$3B5B len   210
  plot1                    $3B5C-$3BA1 len    70
  locate1                  $3BA2-$3BE5 len    68
  newdir                   $3BE6-$3CCE len   233
  walls                    $3CCF-$3DBD len   239
  initsnd                  $3DBE-$3DD3 len    22
  plotgem                  $3DD4-$3DE6 len    19
  rinit                    $3DE7-$3F2D len   327
  scores                   $3F2E-$4004 len   215
  regen                    $4005-$4105 len   257
  ahead                    $4106-$4241 len   316
  getdir                   $4242-$4354 len   275
  explode                  $4355-$43F7 len   163
  cease_fire               $43F8-$4456 len    95
  kill                     $4457-$44B6 len    96
  findr                    $44B7-$4551 len   155
  getgem                   $4552-$456B len    26
  qwin                     $456C-$45C8 len    93
  drawbot                  $45C9-$4660 len   152
  move                     $4661-$498D len   813
  initfire                 $498E-$4C8C len   767
  bullet                   $4C8D-$4EEF len   611
  action                   $4EF0-$4F3A len    75
  shots                    $4F3B-$4F73 len    57
  reward                   $4F74-$4F81 len    14
  tick                     $4F82-$4FAB len    42
  round                    $4FAC-$512B len   384
  intro                    $512C-$5207 len   220
  playagain                $5208-$5286 len   127
  plotim                   $5287-$54E5 len   607
  announce                 $54E6-$56DF len   506
  rdmize                   $56E0-$57F6 len   279
  gwarp                    $57F7-$5926 len   304
  titles                   $5927-$5BB4 len   654
  game                     $5BB5-$5C88 len   212
skipped ranges:
  $5C8A-$5E87 len 510
  $5E88-$6085 len 510
  $6086-$6283 len 510
  $6284-$6481 len 510
  $6482-$64B1 len 48
  $64B2-$6CB1 len 2048
storage symbols:
  global Storage RB $3000-$3000
  global Storage BL $3001-$3001
  global Storage MS $3002-$3002
  global Storage WA $3003-$3003
  global Storage EX $3004-$3004
  global Storage GM $3005-$3005
  global Storage NM $3006-$3006
  global Storage GEMTAKEN $3007-$3007
  global Storage NUMBOTS $3008-$3008
  global Storage WINNER $3009-$3009
  global Storage WINNING $300A-$300A
  global Storage PLAYTO $300B-$300B
  global Storage MAXBOTS $300C-$300C
  global Storage XD $300D-$300E
  global Storage YD $3011-$3012
  global Storage BXD $3015-$3016
  global Storage BYD $3019-$301A
  global Storage LINEPT $301D-$301E
  global Storage ALIVE $3021-$3021
  global Storage EXPL $3120-$3120
  global Storage FIRE $321F-$321F
  global Storage IMAGE $331E-$331E
  global Storage HAVEGEM $341D-$341D
  global Storage CHARSET $3421-$3421
  global Storage X $3425-$3425
  global Storage Y $3524-$3524
  global Storage BX $3623-$3623
  global Storage BY $3722-$3722
  global Storage SCORE $3821-$3821
  global Storage XST $3825-$3825
  global Storage YST $3829-$3829
  global Storage XSC $382D-$382D
  ... 103 more
trusted effects:
  reset                    clobbers A,X,Y; writes abs $3837
  pauz                     clobbers A,X,Y; writes abs $385A,$3859,$385C,$385B
  sign                     clobbers A,X,Y; writes zp $A0,$A1; writes abs $388C,$388B
  plot1                    clobbers A,X,Y; writes zp $82,$83,$84,$85,$A0,$A1,$A2,$AE,$AF; writes abs $3B5F,$3B60; writes unknown-abs
  locate1                  clobbers A,X,Y; writes zp $A0,$AE,$AF; writes abs $3BA3,$3BA2,$3BA4,$3BA5
  plotgem                  clobbers A,X,Y; writes zp $82,$83,$84,$85,$A0,$A1,$A2,$AE,$AF; writes abs $3B5F,$3B60,$3007; writes unknown-abs
  scores                   clobbers A,X,Y; writes zp $82,$83,$84,$85,$86,$87,$A0,$A1,$A2,$AC,$AD,$AE,$AF,$C2; writes abs $300A,$3F2E,$3B5F,$3B60; writes unknown-abs
  getgem                   clobbers A,X,Y; writes zp $82,$83,$84,$85,$A0,$A1,$A2,$AE,$AF; writes abs $4552,$3B5F,$3B60; writes unknown-abs
  qwin                     clobbers A,X,Y; writes zp $AC,$AD,$AE,$AF; writes abs $456C,$3009
  drawbot                  clobbers A,X,Y; writes zp $82,$83,$84,$85,$A0,$A1,$A2,$AC,$AD,$AE,$AF; writes abs $45C9,$3B5F,$3B60,$456C,$3009; writes unknown-abs
  reward                   clobbers A,X,Y; writes abs $4F74; writes unknown-abs

== routines: original:samples/toolkit/survey/outputs/vm/GEMDEM.COM vs compat ==
  reset                    len 2137 -> 34 (-2103)  addr $3000 -> $3837
    reset+$0000 #0000
      original : $3000 01 00    ORA ($00,X)
      generated: $3837 00       BRK
      orig owner: rb $3000
      source   : Declaration reset storage samples/toolkit/original/extracted/GEM.DEM:36:1 | PROC reset() | source 769..836 code $3837-$3837
      owner    : routine reset Local I $3837-$3837+0
    reset+$0002 #0001
      original : $3002 46 87    LSR $87
      generated: $3838 4C 3B 38 JMP $383B
      orig owner: ms $3002
      source   : Routine reset samples/toolkit/original/extracted/GEM.DEM:36:1 | PROC reset() | source 769..836 code $3837-$3858
    reset+$0004 #0002
      original : $3004 48       PHA
      generated: $383B A0 00    LDY #$00
      orig owner: ex $3004
      source   : Statement for samples/toolkit/original/extracted/GEM.DEM:39:4 | FOR i=0 TO 3 | source 796..828 code $383B-$3857
    reset+$0005 #0003
      original : $3005 CC 4D 00 CPY $004D
      generated: $383D 8C 37 38 STY $3837
      orig owner: gm $3005
      source   : Statement for samples/toolkit/original/extracted/GEM.DEM:39:4 | FOR i=0 TO 3 | source 796..828 code $383B-$3857
    reset+$0008 #0004
      original : $3008 00       BRK
      generated: $3840 A9 03    LDA #$03
      orig owner: numbots $3008
      source   : Statement for samples/toolkit/original/extracted/GEM.DEM:39:4 | FOR i=0 TO 3 | source 796..828 code $383B-$3857
    reset+$0009 #0005
      original : $3009 00       BRK
      generated: $3842 CD 37 38 CMP $3837
      orig owner: winner $3009
      source   : Statement for samples/toolkit/original/extracted/GEM.DEM:39:4 | FOR i=0 TO 3 | source 796..828 code $383B-$3857
    reset+$000A #0006
      original : $300A 00       BRK
      generated: $3845 B0 03    BCS $384A
      orig owner: winning $300A
      source   : Statement for samples/toolkit/original/extracted/GEM.DEM:39:4 | FOR i=0 TO 3 | source 796..828 code $383B-$3857
    reset+$000B #0007
      original : $300B 0A       ASL A
      generated: $3847 4C 58 38 JMP $3858
      orig owner: playto $300B
      source   : Statement for samples/toolkit/original/extracted/GEM.DEM:39:4 | FOR i=0 TO 3 | source 796..828 code $383B-$3857
    reset+$000C #0008
      original : $300C 05 65    ORA $65
      generated: $384A AE 37 38 LDX $3837
      orig owner: maxbots $300C
      source   : Statement assignment samples/toolkit/original/extracted/GEM.DEM:40:7 | DO score(i)=0 OD | source 815..825 code $384A-$3851
    reset+$000E #0009
      original : $300E 66 FE    ROR $FE
      generated: $384D A9 00    LDA #$00
      orig owner: xd+1 $300E
      source   : Statement assignment samples/toolkit/original/extracted/GEM.DEM:40:7 | DO score(i)=0 OD | source 815..825 code $384A-$3851
    reset+$0010 #0010
      original : $3010 01 67    ORA ($67,X)
      generated: $384F 9D 21 38 STA $3821,X
      source   : Statement assignment samples/toolkit/original/extracted/GEM.DEM:40:7 | DO score(i)=0 OD | source 815..825 code $384A-$3851
    reset+$0012 #0011
      original : $3012 64       .BYTE $64
      generated: $3852 EE 37 38 INC $3837
      orig owner: yd+1 $3012
      source   : Statement for samples/toolkit/original/extracted/GEM.DEM:39:4 | FOR i=0 TO 3 | source 796..828 code $383B-$3857
    reset+$0013 #0012
      original : $3013 FE 01 69 INC $6901,X
      generated: $3855 4C 40 38 JMP $3840
      source   : Statement for samples/toolkit/original/extracted/GEM.DEM:39:4 | FOR i=0 TO 3 | source 796..828 code $383B-$3857
    reset+$0016 #0013
      original : $3016 62       .BYTE $62
      generated: $3858 60       RTS
      orig owner: bxd+1 $3016
      source   : Statement return samples/toolkit/original/extracted/GEM.DEM:1:1 | ; GEM by Joel Gluck | source 0..0 code $3858-$3858
    reset+$0017 #0014
      original : $3017 FE 01 6B INC $6B01,X
      generated: <missing>
    reset+$001A #0015
      original : $301A 60       RTS
      generated: <missing>
      orig owner: byd+1 $301A
    reset+$001B #0016
      original : $301B FE 01 3B INC $3B01,X
      generated: <missing>
    reset+$001E #0017
      original : $301E 60       RTS
      generated: <missing>
      orig owner: linept+1 $301E
    reset+$001F #0018
      original : $301F 30 00    BMI $3021 ; alive $3021
      generated: <missing>
      orig operand: alive $3021
    reset+$0021 #0019
      original : $3021 1D 30 FF ORA $FF30,X
      generated: <missing>
      orig owner: alive $3021
    reset+$0024 #0020
      original : $3024 00       BRK
      generated: <missing>
    reset+$0025 #0021
      original : $3025 00       BRK
      generated: <missing>
    reset+$0026 #0022
      original : $3026 00       BRK
      generated: <missing>
    reset+$0027 #0023
      original : $3027 00       BRK
      generated: <missing>
  pauz                     len 64 -> 50 (-14)  addr $3859 -> $3859
    pauz+$0018 #0011
      original : $3871 8D 8B 38 STA $388B
      generated: $3871 CD 5B 38 CMP $385B
      source   : Statement for samples/toolkit/original/extracted/GEM.DEM:47:4 | FOR loop = 0 TO p | source 873..907 code $3866-$3889
    pauz+$001E #0013
      original : $3877 8D 8C 38 STA $388C
      generated: $3877 ED 5C 38 SBC $385C
      source   : Statement for samples/toolkit/original/extracted/GEM.DEM:47:4 | FOR loop = 0 TO p | source 873..907 code $3866-$3889
    pauz+$0021 #0014
      original : $387A AD 8B 38 LDA $388B
      generated: $387A B0 03    BCS $387F
      source   : Statement for samples/toolkit/original/extracted/GEM.DEM:47:4 | FOR loop = 0 TO p | source 873..907 code $3866-$3889
    pauz+$0024 #0015
      original : $387D CD 5B 38 CMP $385B ; loop $385B
      generated: $387C 4C 8A 38 JMP $388A
      orig operand: loop $385B
      source   : Statement for samples/toolkit/original/extracted/GEM.DEM:47:4 | FOR loop = 0 TO p | source 873..907 code $3866-$3889
    pauz+$0027 #0016
      original : $3880 AD 8C 38 LDA $388C
      generated: $387F EE 5B 38 INC $385B
      source   : Statement for samples/toolkit/original/extracted/GEM.DEM:47:4 | FOR loop = 0 TO p | source 873..907 code $3866-$3889
    pauz+$002A #0017
      original : $3883 ED 5C 38 SBC $385C ; loop+1 $385C
      generated: $3882 D0 03    BNE $3887
      orig operand: loop+1 $385C
      source   : Statement for samples/toolkit/original/extracted/GEM.DEM:47:4 | FOR loop = 0 TO p | source 873..907 code $3866-$3889
    pauz+$002D #0018
      original : $3886 B0 05    BCS $388D
      generated: $3884 EE 5C 38 INC $385C
      source   : Statement for samples/toolkit/original/extracted/GEM.DEM:47:4 | FOR loop = 0 TO p | source 873..907 code $3866-$3889
    pauz+$002F #0019
      original : $3888 4C 98 38 JMP $3898
      generated: $3887 4C 6E 38 JMP $386E
      source   : Statement for samples/toolkit/original/extracted/GEM.DEM:47:4 | FOR loop = 0 TO p | source 873..907 code $3866-$3889
    pauz+$0032 #0020
      original : $388B 00       BRK
      generated: $388A 60       RTS
      source   : Statement return samples/toolkit/original/extracted/GEM.DEM:1:1 | ; GEM by Joel Gluck | source 0..0 code $388A-$388A
    pauz+$0033 #0021
      original : $388C 00       BRK
      generated: <missing>
    pauz+$0034 #0022
      original : $388D EE 5B 38 INC $385B ; loop $385B
      generated: <missing>
      orig operand: loop $385B
    pauz+$0037 #0023
      original : $3890 D0 E8    BNE $387A
      generated: <missing>
    pauz+$0039 #0024
      original : $3892 EE 5C 38 INC $385C ; loop+1 $385C
      generated: <missing>
      orig operand: loop+1 $385C
    pauz+$003C #0025
      original : $3895 4C 7A 38 JMP $387A
      generated: <missing>
    pauz+$003F #0026
      original : $3898 60       RTS
      generated: <missing>
  sign                     len 74 -> 75 (+1)  addr $3899 -> $388B
    sign+$0002 #0002
      original : $389B 4C 9E 38 JMP $389E
      generated: $388D 4C 90 38 JMP $3890
      orig owner: sign $389B
      source   : Routine sign samples/toolkit/original/extracted/GEM.DEM:54:1 | INT FUNC sign(INT n) | source 917..1034 code $388B-$38D5
    sign+$0005 #0003
      original : $389E 8E 9A 38 STX $389A ; n+1 $389A
      generated: $3890 8E 8C 38 STX $388C
      orig operand: n+1 $389A
      source   : Routine sign samples/toolkit/original/extracted/GEM.DEM:54:1 | INT FUNC sign(INT n) | source 917..1034 code $388B-$38D5
    sign+$0008 #0004
      original : $38A1 8D 99 38 STA $3899 ; n $3899
      generated: $3893 8D 8B 38 STA $388B
      orig operand: n $3899
      source   : Routine sign samples/toolkit/original/extracted/GEM.DEM:54:1 | INT FUNC sign(INT n) | source 917..1034 code $388B-$38D5
    sign+$000B #0005
      original : $38A4 AD 99 38 LDA $3899 ; n $3899
      generated: $3896 AD 8B 38 LDA $388B
      orig operand: n $3899
      source   : Statement if samples/toolkit/original/extracted/GEM.DEM:56:4 | IF n<0 | source 945..1034 code $3896-$38D4
    sign+$0010 #0007
      original : $38A9 AD 9A 38 LDA $389A ; n+1 $389A
      generated: $389B AD 8C 38 LDA $388C
      orig operand: n+1 $389A
      source   : Statement if samples/toolkit/original/extracted/GEM.DEM:56:4 | IF n<0 | source 945..1034 code $3896-$38D4
    sign+$0017 #0010
      original : $38B0 4C BF 38 JMP $38BF
      generated: $38A2 4C B1 38 JMP $38B1
      source   : Statement if samples/toolkit/original/extracted/GEM.DEM:56:4 | IF n<0 | source 945..1034 code $3896-$38D4
    sign+$0023 #0016
      original : $38BC 4C E3 38 JMP $38E3 ; scrn $38E3
      generated: $38AE 4C D5 38 JMP $38D5
      orig operand: scrn $38E3
      source   : Statement if samples/toolkit/original/extracted/GEM.DEM:56:4 | IF n<0 | source 945..1034 code $3896-$38D4
    sign+$0028 #0018
      original : $38C1 CD 99 38 CMP $3899 ; n $3899
      generated: $38B3 CD 8B 38 CMP $388B
      orig operand: n $3899
      source   : Statement if samples/toolkit/original/extracted/GEM.DEM:56:4 | IF n<0 | source 945..1034 code $3896-$38D4
    sign+$002D #0020
      original : $38C6 ED 9A 38 SBC $389A ; n+1 $389A
      generated: $38B8 ED 8C 38 SBC $388C
      orig operand: n+1 $389A
      source   : Statement if samples/toolkit/original/extracted/GEM.DEM:56:4 | IF n<0 | source 945..1034 code $3896-$38D4
    sign+$0032 #0022
      original : $38CB 4C DA 38 JMP $38DA
      generated: $38BD 4C CC 38 JMP $38CC
      source   : Statement if samples/toolkit/original/extracted/GEM.DEM:56:4 | IF n<0 | source 945..1034 code $3896-$38D4
    sign+$003E #0028
      original : $38D7 4C E3 38 JMP $38E3 ; scrn $38E3
      generated: $38C9 4C D5 38 JMP $38D5
      orig operand: scrn $38E3
      source   : Statement if samples/toolkit/original/extracted/GEM.DEM:56:4 | IF n<0 | source 945..1034 code $3896-$38D4
    sign+<missing> #0034
      original : <missing>
      generated: $38D5 60       RTS
      source   : Routine sign samples/toolkit/original/extracted/GEM.DEM:54:1 | INT FUNC sign(INT n) | source 917..1034 code $388B-$38D5
  gr1init                  len 173 -> 173 (+0)  addr $38E3 -> $38D6
    gr1init+$0004 #0004
      original : $38E7 4C EA 38 JMP $38EA
      generated: $38DA 4C DD 38 JMP $38DD
      orig owner: gr1init $38E7
      source   : Routine gr1init samples/toolkit/original/extracted/GEM.DEM:64:1 | PROC gr1init() | source 1042..1222 code $38D6-$3982
    gr1init+$0015 #0011
      original : $38F8 8D E4 38 STA $38E4 ; scrn+1 $38E4
      generated: $38EB 8D D7 38 STA $38D7
      orig operand: scrn+1 $38E4
      source   : Statement assignment samples/toolkit/original/extracted/GEM.DEM:68:4 | scrn = Peek(88) | source 1100..1115 code $38E2-$38F2
    gr1init+$001A #0013
      original : $38FD 8D E3 38 STA $38E3 ; scrn $38E3
      generated: $38F0 8D D6 38 STA $38D6
      orig operand: scrn $38E3
      source   : Statement assignment samples/toolkit/original/extracted/GEM.DEM:68:4 | scrn = Peek(88) | source 1100..1115 code $38E2-$38F2
    gr1init+$0024 #0017
      original : $3907 A9 01    LDA #$01
      generated: $38FA A5 A0    LDA $A0
      source   : Statement compound assignment samples/toolkit/original/extracted/GEM.DEM:69:4 | scrn ==+ Peek(89) * 256 | source 1120..1143 code $38F3-$3922
    gr1init+$0026 #0018
      original : $3909 85 85    STA $85
      generated: $38FC 85 AE    STA $AE
      source   : Statement compound assignment samples/toolkit/original/extracted/GEM.DEM:69:4 | scrn ==+ Peek(89) * 256 | source 1120..1143 code $38F3-$3922
    gr1init+$0028 #0019
      original : $390B A9 00    LDA #$00
      generated: $38FE A9 01    LDA #$01
      source   : Statement compound assignment samples/toolkit/original/extracted/GEM.DEM:69:4 | scrn ==+ Peek(89) * 256 | source 1120..1143 code $38F3-$3922
    gr1init+$002A #0020
      original : $390D 85 84    STA $84
      generated: $3900 85 85    STA $85
      source   : Statement compound assignment samples/toolkit/original/extracted/GEM.DEM:69:4 | scrn ==+ Peek(89) * 256 | source 1120..1143 code $38F3-$3922
    gr1init+$002C #0021
      original : $390F A5 A0    LDA $A0
      generated: $3902 A9 00    LDA #$00
      source   : Statement compound assignment samples/toolkit/original/extracted/GEM.DEM:69:4 | scrn ==+ Peek(89) * 256 | source 1120..1143 code $38F3-$3922
    gr1init+$002E #0022
      original : $3911 A2 00    LDX #$00
      generated: $3904 85 84    STA $84
      source   : Statement compound assignment samples/toolkit/original/extracted/GEM.DEM:69:4 | scrn ==+ Peek(89) * 256 | source 1120..1143 code $38F3-$3922
    gr1init+$0030 #0023
      original : $3913 20 00 A0 JSR $A000
      generated: $3906 A5 AE    LDA $AE
      source   : Statement compound assignment samples/toolkit/original/extracted/GEM.DEM:69:4 | scrn ==+ Peek(89) * 256 | source 1120..1143 code $38F3-$3922
    gr1init+$0033 #0024
      original : $3916 85 AE    STA $AE
      generated: $3908 A2 00    LDX #$00
      source   : Statement compound assignment samples/toolkit/original/extracted/GEM.DEM:69:4 | scrn ==+ Peek(89) * 256 | source 1120..1143 code $38F3-$3922
    gr1init+$0035 #0025
      original : $3918 8A       TXA
      generated: $390A 20 00 A0 JSR $A000
      source   : Statement compound assignment samples/toolkit/original/extracted/GEM.DEM:69:4 | scrn ==+ Peek(89) * 256 | source 1120..1143 code $38F3-$3922
    gr1init+$0036 #0026
      original : $3919 85 AF    STA $AF
      generated: $390D 85 AC    STA $AC
      source   : Statement compound assignment samples/toolkit/original/extracted/GEM.DEM:69:4 | scrn ==+ Peek(89) * 256 | source 1120..1143 code $38F3-$3922
    gr1init+$0038 #0027
      original : $391B 18       CLC
      generated: $390F 8A       TXA
      source   : Statement compound assignment samples/toolkit/original/extracted/GEM.DEM:69:4 | scrn ==+ Peek(89) * 256 | source 1120..1143 code $38F3-$3922
    gr1init+$0039 #0028
      original : $391C AD E3 38 LDA $38E3 ; scrn $38E3
      generated: $3910 85 AD    STA $AD
      orig operand: scrn $38E3
      source   : Statement compound assignment samples/toolkit/original/extracted/GEM.DEM:69:4 | scrn ==+ Peek(89) * 256 | source 1120..1143 code $38F3-$3922
    gr1init+$003C #0029
      original : $391F 65 AE    ADC $AE
      generated: $3912 18       CLC
      source   : Statement compound assignment samples/toolkit/original/extracted/GEM.DEM:69:4 | scrn ==+ Peek(89) * 256 | source 1120..1143 code $38F3-$3922
    gr1init+$003E #0030
      original : $3921 8D E3 38 STA $38E3 ; scrn $38E3
      generated: $3913 A5 AC    LDA $AC
      orig operand: scrn $38E3
      source   : Statement compound assignment samples/toolkit/original/extracted/GEM.DEM:69:4 | scrn ==+ Peek(89) * 256 | source 1120..1143 code $38F3-$3922
    gr1init+$0041 #0031
      original : $3924 AD E4 38 LDA $38E4 ; scrn+1 $38E4
      generated: $3915 6D D6 38 ADC $38D6
      orig operand: scrn+1 $38E4
      source   : Statement compound assignment samples/toolkit/original/extracted/GEM.DEM:69:4 | scrn ==+ Peek(89) * 256 | source 1120..1143 code $38F3-$3922
    gr1init+$0044 #0032
      original : $3927 65 AF    ADC $AF
      generated: $3918 8D D6 38 STA $38D6
      source   : Statement compound assignment samples/toolkit/original/extracted/GEM.DEM:69:4 | scrn ==+ Peek(89) * 256 | source 1120..1143 code $38F3-$3922
    gr1init+$0046 #0033
      original : $3929 8D E4 38 STA $38E4 ; scrn+1 $38E4
      generated: $391B A5 AD    LDA $AD
      orig operand: scrn+1 $38E4
      source   : Statement compound assignment samples/toolkit/original/extracted/GEM.DEM:69:4 | scrn ==+ Peek(89) * 256 | source 1120..1143 code $38F3-$3922
    gr1init+$0049 #0034
      original : $392C A0 00    LDY #$00
      generated: $391D 6D D7 38 ADC $38D7
      source   : Statement compound assignment samples/toolkit/original/extracted/GEM.DEM:69:4 | scrn ==+ Peek(89) * 256 | source 1120..1143 code $38F3-$3922
    gr1init+$004B #0035
      original : $392E 8C E6 38 STY $38E6 ; line+1 $38E6
      generated: $3920 8D D7 38 STA $38D7
      orig operand: line+1 $38E6
      source   : Statement compound assignment samples/toolkit/original/extracted/GEM.DEM:69:4 | scrn ==+ Peek(89) * 256 | source 1120..1143 code $38F3-$3922
    gr1init+$004E #0036
      original : $3931 8C E5 38 STY $38E5 ; line $38E5
      generated: $3923 A0 00    LDY #$00
      orig operand: line $38E5
      source   : Statement for samples/toolkit/original/extracted/GEM.DEM:70:4 | FOR line = 0 TO 23 | source 1147..1214 code $3923-$3981
    gr1init+$0051 #0037
      original : $3934 A9 17    LDA #$17
      generated: $3925 8C D9 38 STY $38D9
      source   : Statement for samples/toolkit/original/extracted/GEM.DEM:70:4 | FOR line = 0 TO 23 | source 1147..1214 code $3923-$3981
  charpats                 len 263 -> 263 (+0)  addr $3990 -> $3983
    charpats+$006B #0071
      original : $39FB FD 39 A0 SBC $A039,X
      generated: $39EE F0 39    BEQ $3A29
      source   : Routine charpats samples/toolkit/original/extracted/GEM.DEM:77:1 | PROC charpats() | source 1224..1830 code $3983-$3A89
    charpats+$006E #0072
      original : $39FE 00       BRK
      generated: $39F0 A0 00    LDY #$00
      source   : Statement for samples/toolkit/original/extracted/GEM.DEM:99:5 | FOR i = 0 TO 103 | source 1683..1737 code $39F0-$3A25
    charpats+$006F #0073
      original : $39FF 8C 90 39 STY $3990 ; i $3990
      generated: $39F2 8C 83 39 STY $3983
      orig operand: i $3990
      source   : Statement for samples/toolkit/original/extracted/GEM.DEM:99:5 | FOR i = 0 TO 103 | source 1683..1737 code $39F0-$3A25
    charpats+$0074 #0075
      original : $3A04 CD 90 39 CMP $3990 ; i $3990
      generated: $39F7 CD 83 39 CMP $3983
      orig operand: i $3990
      source   : Statement for samples/toolkit/original/extracted/GEM.DEM:99:5 | FOR i = 0 TO 103 | source 1683..1737 code $39F0-$3A25
    charpats+$0079 #0077
      original : $3A09 4C 33 3A JMP $3A33
      generated: $39FC 4C 26 3A JMP $3A26
      source   : Statement for samples/toolkit/original/extracted/GEM.DEM:99:5 | FOR i = 0 TO 103 | source 1683..1737 code $39F0-$3A25
    charpats+$0080 #0080
      original : $3A10 6D 90 39 ADC $3990 ; i $3990
      generated: $3A03 6D 83 39 ADC $3983
      orig operand: i $3990
      source   : Statement call samples/toolkit/original/extracted/GEM.DEM:101:5 | Poke(cset+i,foo(i)) | source 1711..1730 code $39FF-$3A1F
    charpats+$008C #0085
      original : $3A1C AE 90 39 LDX $3990 ; i $3990
      generated: $3A0F AE 83 39 LDX $3983
      orig operand: i $3990
      source   : Statement call samples/toolkit/original/extracted/GEM.DEM:101:5 | Poke(cset+i,foo(i)) | source 1711..1730 code $39FF-$3A1F
    charpats+$008F #0086
      original : $3A1F BD 92 39 LDA $3992,X ; foo $3992
      generated: $3A12 BD 85 39 LDA $3985,X
      orig operand: foo $3992
      source   : Statement call samples/toolkit/original/extracted/GEM.DEM:101:5 | Poke(cset+i,foo(i)) | source 1711..1730 code $39FF-$3A1F
    charpats+$009D #0092
      original : $3A2D EE 90 39 INC $3990 ; i $3990
      generated: $3A20 EE 83 39 INC $3983
      orig operand: i $3990
      source   : Statement for samples/toolkit/original/extracted/GEM.DEM:99:5 | FOR i = 0 TO 103 | source 1683..1737 code $39F0-$3A25
    charpats+$00A0 #0093
      original : $3A30 4C 02 3A JMP $3A02
      generated: $3A23 4C F5 39 JMP $39F5
      source   : Statement for samples/toolkit/original/extracted/GEM.DEM:99:5 | FOR i = 0 TO 103 | source 1683..1737 code $39F0-$3A25
    charpats+$00A5 #0095
      original : $3A35 8C 90 39 STY $3990 ; i $3990
      generated: $3A28 8C 83 39 STY $3983
      orig operand: i $3990
      source   : Statement for samples/toolkit/original/extracted/GEM.DEM:104:5 | FOR i = 0 TO 80 | source 1743..1822 code $3A26-$3A88
    charpats+$00AA #0097
      original : $3A3A CD 90 39 CMP $3990 ; i $3990
      generated: $3A2D CD 83 39 CMP $3983
      orig operand: i $3990
      source   : Statement for samples/toolkit/original/extracted/GEM.DEM:104:5 | FOR i = 0 TO 80 | source 1743..1822 code $3A26-$3A88
    charpats+$00AF #0099
      original : $3A3F 4C 96 3A JMP $3A96
      generated: $3A32 4C 89 3A JMP $3A89
      source   : Statement for samples/toolkit/original/extracted/GEM.DEM:104:5 | FOR i = 0 TO 80 | source 1743..1822 code $3A26-$3A88
    charpats+$00B5 #0102
      original : $3A45 6D 90 39 ADC $3990 ; i $3990
      generated: $3A38 6D 83 39 ADC $3983
      orig operand: i $3990
      source   : Statement assignment samples/toolkit/original/extracted/GEM.DEM:106:5 | b = Peek(57344+i+128) | source 1770..1791 code $3A35-$3A5B
    charpats+$00B8 #0103
      original : $3A48 85 AE    STA $AE
      generated: $3A3B 85 AC    STA $AC
      source   : Statement assignment samples/toolkit/original/extracted/GEM.DEM:106:5 | b = Peek(57344+i+128) | source 1770..1791 code $3A35-$3A5B
    charpats+$00BE #0106
      original : $3A4E 85 AF    STA $AF
      generated: $3A41 85 AD    STA $AD
      source   : Statement assignment samples/toolkit/original/extracted/GEM.DEM:106:5 | b = Peek(57344+i+128) | source 1770..1791 code $3A35-$3A5B
    charpats+$00C1 #0108
      original : $3A51 A5 AE    LDA $AE
      generated: $3A44 A5 AC    LDA $AC
      source   : Statement assignment samples/toolkit/original/extracted/GEM.DEM:106:5 | b = Peek(57344+i+128) | source 1770..1791 code $3A35-$3A5B
    charpats+$00C7 #0111
      original : $3A57 A5 AF    LDA $AF
      generated: $3A4A A5 AD    LDA $AD
      source   : Statement assignment samples/toolkit/original/extracted/GEM.DEM:106:5 | b = Peek(57344+i+128) | source 1770..1791 code $3A35-$3A5B
    charpats+$00D6 #0118
      original : $3A66 8D 91 39 STA $3991 ; b $3991
      generated: $3A59 8D 84 39 STA $3984
      orig operand: b $3991
      source   : Statement assignment samples/toolkit/original/extracted/GEM.DEM:106:5 | b = Peek(57344+i+128) | source 1770..1791 code $3A35-$3A5B
    charpats+$00DD #0121
      original : $3A6D 6D 90 39 ADC $3990 ; i $3990
      generated: $3A60 6D 83 39 ADC $3983
      orig operand: i $3990
      source   : Statement call samples/toolkit/original/extracted/GEM.DEM:107:5 | Poke(cset+i+104,b) | source 1797..1815 code $3A5C-$3A82
    charpats+$00E0 #0122
      original : $3A70 85 AE    STA $AE
      generated: $3A63 85 AC    STA $AC
      source   : Statement call samples/toolkit/original/extracted/GEM.DEM:107:5 | Poke(cset+i+104,b) | source 1797..1815 code $3A5C-$3A82
    charpats+$00E7 #0125
      original : $3A77 85 AF    STA $AF
      generated: $3A6A 85 AD    STA $AD
      source   : Statement call samples/toolkit/original/extracted/GEM.DEM:107:5 | Poke(cset+i+104,b) | source 1797..1815 code $3A5C-$3A82
    charpats+$00EA #0127
      original : $3A7A A5 AE    LDA $AE
      generated: $3A6D A5 AC    LDA $AC
      source   : Statement call samples/toolkit/original/extracted/GEM.DEM:107:5 | Poke(cset+i+104,b) | source 1797..1815 code $3A5C-$3A82
    charpats+$00F0 #0130
      original : $3A80 A5 AF    LDA $AF
      generated: $3A73 A5 AD    LDA $AD
      source   : Statement call samples/toolkit/original/extracted/GEM.DEM:107:5 | Poke(cset+i+104,b) | source 1797..1815 code $3A5C-$3A82
  scrninit                 len 210 -> 210 (+0)  addr $3A97 -> $3A8A
    scrninit+$0002 #0002
      original : $3A99 4C 9C 3A JMP $3A9C
      generated: $3A8C 4C 8F 3A JMP $3A8F
      orig owner: scrninit $3A99
      source   : Routine scrninit samples/toolkit/original/extracted/GEM.DEM:112:1 | PROC scrninit() | source 1856..2148 code $3A8A-$3B5B
    scrninit+$0005 #0003
      original : $3A9C 20 E7 38 JSR $38E7 ; gr1init $38E7
      generated: $3A8F 20 DA 38 JSR $38DA
      orig operand: gr1init $38E7
      source   : Statement call samples/toolkit/original/extracted/GEM.DEM:115:4 | gr1init() | source 1889..1898 code $3A8F-$3A91
    scrninit+$000A #0005
      original : $3AA1 8C 98 3A STY $3A98 ; i+1 $3A98
      generated: $3A94 8C 8B 3A STY $3A8B
      orig operand: i+1 $3A98
      source   : Statement for samples/toolkit/original/extracted/GEM.DEM:117:4 | FOR i=0 TO 4 | source 1903..1940 code $3A92-$3ABD
    scrninit+$000D #0006
      original : $3AA4 8C 97 3A STY $3A97 ; i $3A97
      generated: $3A97 8C 8A 3A STY $3A8A
      orig operand: i $3A97
      source   : Statement for samples/toolkit/original/extracted/GEM.DEM:117:4 | FOR i=0 TO 4 | source 1903..1940 code $3A92-$3ABD
    scrninit+$0012 #0008
      original : $3AA9 CD 97 3A CMP $3A97 ; i $3A97
      generated: $3A9C CD 8A 3A CMP $3A8A
      orig operand: i $3A97
      source   : Statement for samples/toolkit/original/extracted/GEM.DEM:117:4 | FOR i=0 TO 4 | source 1903..1940 code $3A92-$3ABD
    scrninit+$0017 #0010
      original : $3AAE ED 98 3A SBC $3A98 ; i+1 $3A98
      generated: $3AA1 ED 8B 3A SBC $3A8B
      orig operand: i+1 $3A98
      source   : Statement for samples/toolkit/original/extracted/GEM.DEM:117:4 | FOR i=0 TO 4 | source 1903..1940 code $3A92-$3ABD
    scrninit+$001C #0012
      original : $3AB3 4C CB 3A JMP $3ACB
      generated: $3AA6 4C BE 3A JMP $3ABE
      source   : Statement for samples/toolkit/original/extracted/GEM.DEM:117:4 | FOR i=0 TO 4 | source 1903..1940 code $3A92-$3ABD
    scrninit+$0023 #0015
      original : $3ABA AD 97 3A LDA $3A97 ; i $3A97
      generated: $3AAD AD 8A 3A LDA $3A8A
      orig operand: i $3A97
      source   : Statement call samples/toolkit/original/extracted/GEM.DEM:118:7 | DO Setcolor(i,0,0) OD | source 1922..1937 code $3AA9-$3AB2
    scrninit+$0029 #0017
      original : $3AC0 EE 97 3A INC $3A97 ; i $3A97
      generated: $3AB3 EE 8A 3A INC $3A8A
      orig operand: i $3A97
      source   : Statement for samples/toolkit/original/extracted/GEM.DEM:117:4 | FOR i=0 TO 4 | source 1903..1940 code $3A92-$3ABD
    scrninit+$002C #0018
      original : $3AC3 D0 E2    BNE $3AA7
      generated: $3AB6 D0 03    BNE $3ABB
      source   : Statement for samples/toolkit/original/extracted/GEM.DEM:117:4 | FOR i=0 TO 4 | source 1903..1940 code $3A92-$3ABD
    scrninit+$002E #0019
      original : $3AC5 EE 98 3A INC $3A98 ; i+1 $3A98
      generated: $3AB8 EE 8B 3A INC $3A8B
      orig operand: i+1 $3A98
      source   : Statement for samples/toolkit/original/extracted/GEM.DEM:117:4 | FOR i=0 TO 4 | source 1903..1940 code $3A92-$3ABD
    scrninit+$0031 #0020
      original : $3AC8 4C A7 3A JMP $3AA7
      generated: $3ABB 4C 9A 3A JMP $3A9A
      source   : Statement for samples/toolkit/original/extracted/GEM.DEM:117:4 | FOR i=0 TO 4 | source 1903..1940 code $3A92-$3ABD
    scrninit+$003A #0024
      original : $3AD1 85 AE    STA $AE
      generated: $3AC4 85 AC    STA $AC
      source   : Statement assignment samples/toolkit/original/extracted/GEM.DEM:120:4 | cset = (charset + 1023) & $FC00 | source 1945..1976 code $3ABE-$3ADA
    scrninit+$0041 #0027
      original : $3AD8 85 AF    STA $AF
      generated: $3ACB 85 AD    STA $AD
      source   : Statement assignment samples/toolkit/original/extracted/GEM.DEM:120:4 | cset = (charset + 1023) & $FC00 | source 1945..1976 code $3ABE-$3ADA
    scrninit+$0043 #0028
      original : $3ADA A5 AE    LDA $AE
      generated: $3ACD A5 AC    LDA $AC
      source   : Statement assignment samples/toolkit/original/extracted/GEM.DEM:120:4 | cset = (charset + 1023) & $FC00 | source 1945..1976 code $3ABE-$3ADA
    scrninit+$004A #0031
      original : $3AE1 A5 AF    LDA $AF
      generated: $3AD4 A5 AD    LDA $AD
      source   : Statement assignment samples/toolkit/original/extracted/GEM.DEM:120:4 | cset = (charset + 1023) & $FC00 | source 1945..1976 code $3ABE-$3ADA
    scrninit+$0053 #0035
      original : $3AEA 8C 98 3A STY $3A98 ; i+1 $3A98
      generated: $3ADD 8C 8B 3A STY $3A8B
      orig operand: i+1 $3A98
      source   : Statement for samples/toolkit/original/extracted/GEM.DEM:122:4 | FOR i = 0 TO 1023 | source 1981..2023 code $3ADB-$3B16
    scrninit+$0056 #0036
      original : $3AED 8C 97 3A STY $3A97 ; i $3A97
      generated: $3AE0 8C 8A 3A STY $3A8A
      orig operand: i $3A97
      source   : Statement for samples/toolkit/original/extracted/GEM.DEM:122:4 | FOR i = 0 TO 1023 | source 1981..2023 code $3ADB-$3B16
    scrninit+$005B #0038
      original : $3AF2 CD 97 3A CMP $3A97 ; i $3A97
      generated: $3AE5 CD 8A 3A CMP $3A8A
      orig operand: i $3A97
      source   : Statement for samples/toolkit/original/extracted/GEM.DEM:122:4 | FOR i = 0 TO 1023 | source 1981..2023 code $3ADB-$3B16
    scrninit+$0060 #0040
      original : $3AF7 ED 98 3A SBC $3A98 ; i+1 $3A98
      generated: $3AEA ED 8B 3A SBC $3A8B
      orig operand: i+1 $3A98
      source   : Statement for samples/toolkit/original/extracted/GEM.DEM:122:4 | FOR i = 0 TO 1023 | source 1981..2023 code $3ADB-$3B16
    scrninit+$0065 #0042
      original : $3AFC 4C 24 3B JMP $3B24
      generated: $3AEF 4C 17 3B JMP $3B17
      source   : Statement for samples/toolkit/original/extracted/GEM.DEM:122:4 | FOR i = 0 TO 1023 | source 1981..2023 code $3ADB-$3B16
    scrninit+$006C #0045
      original : $3B03 6D 97 3A ADC $3A97 ; i $3A97
      generated: $3AF6 6D 8A 3A ADC $3A8A
      orig operand: i $3A97
      source   : Statement call samples/toolkit/original/extracted/GEM.DEM:123:7 | DO Poke(cset+i,0) OD | source 2006..2020 code $3AF2-$3B0B
    scrninit+$0074 #0048
      original : $3B0B 6D 98 3A ADC $3A98 ; i+1 $3A98
      generated: $3AFE 6D 8B 3A ADC $3A8B
      orig operand: i+1 $3A98
      source   : Statement call samples/toolkit/original/extracted/GEM.DEM:123:7 | DO Poke(cset+i,0) OD | source 2006..2020 code $3AF2-$3B0B
    scrninit+$0082 #0054
      original : $3B19 EE 97 3A INC $3A97 ; i $3A97
      generated: $3B0C EE 8A 3A INC $3A8A
      orig operand: i $3A97
      source   : Statement for samples/toolkit/original/extracted/GEM.DEM:122:4 | FOR i = 0 TO 1023 | source 1981..2023 code $3ADB-$3B16
  plot1                    len 70 -> 70 (+0)  addr $3B69 -> $3B5C
    plot1+$0005 #0005
      original : $3B6E 4C 71 3B JMP $3B71
      generated: $3B61 4C 64 3B JMP $3B64
      orig owner: plot1 $3B6E
      source   : Routine plot1 samples/toolkit/original/extracted/GEM.DEM:137:1 | PROC plot1(BYTE x,y,col) | source 2152..2250 code $3B5C-$3BA1
    plot1+$000B #0007
      original : $3B74 69 3B 02 .BYTE $69,$3B,$02
      generated: $3B67 5C 3B 02 .BYTE $5C,$3B,$02
      source   : Routine plot1 samples/toolkit/original/extracted/GEM.DEM:137:1 | PROC plot1(BYTE x,y,col) | source 2152..2250 code $3B5C-$3BA1
    plot1+$000E #0008
      original : $3B77 AD 6A 3B LDA $3B6A ; y $3B6A
      generated: $3B6A AD 5D 3B LDA $3B5D
      orig operand: y $3B6A
      source   : Statement assignment samples/toolkit/original/extracted/GEM.DEM:141:4 | pixel = linept(y) + x | source 2204..2225 code $3B6A-$3B90
    plot1+$0027 #0022
      original : $3B90 6D 69 3B ADC $3B69 ; x $3B69
      generated: $3B83 6D 5C 3B ADC $3B5C
      orig operand: x $3B69
      source   : Statement assignment samples/toolkit/original/extracted/GEM.DEM:141:4 | pixel = linept(y) + x | source 2204..2225 code $3B6A-$3B90
    plot1+$002A #0023
      original : $3B93 8D 6C 3B STA $3B6C ; pixel $3B6C
      generated: $3B86 8D 5F 3B STA $3B5F
      orig operand: pixel $3B6C
      source   : Statement assignment samples/toolkit/original/extracted/GEM.DEM:141:4 | pixel = linept(y) + x | source 2204..2225 code $3B6A-$3B90
    plot1+$0032 #0027
      original : $3B9B 8D 6D 3B STA $3B6D
      generated: $3B8E 8D 60 3B STA $3B60
      source   : Statement assignment samples/toolkit/original/extracted/GEM.DEM:141:4 | pixel = linept(y) + x | source 2204..2225 code $3B6A-$3B90
    plot1+$0035 #0028
      original : $3B9E AD 6C 3B LDA $3B6C ; pixel $3B6C
      generated: $3B91 AD 5F 3B LDA $3B5F
      orig operand: pixel $3B6C
      source   : Statement assignment samples/toolkit/original/extracted/GEM.DEM:143:4 | pixel^ = col | source 2230..2242 code $3B91-$3BA0
    plot1+$003A #0030
      original : $3BA3 AD 6D 3B LDA $3B6D
      generated: $3B96 AD 60 3B LDA $3B60
      source   : Statement assignment samples/toolkit/original/extracted/GEM.DEM:143:4 | pixel^ = col | source 2230..2242 code $3B91-$3BA0
    plot1+$003F #0032
      original : $3BA8 AD 6B 3B LDA $3B6B ; col $3B6B
      generated: $3B9B AD 5E 3B LDA $3B5E
      orig operand: col $3B6B
      source   : Statement assignment samples/toolkit/original/extracted/GEM.DEM:143:4 | pixel^ = col | source 2230..2242 code $3B91-$3BA0
  locate1                  len 68 -> 68 (+0)  addr $3BAF -> $3BA2
    locate1+$0004 #0004
      original : $3BB3 4C B6 3B JMP $3BB6
      generated: $3BA6 4C A9 3B JMP $3BA9
      orig owner: locate1 $3BB3
      source   : Routine locate1 samples/toolkit/original/extracted/GEM.DEM:147:1 | BYTE FUNC locate1(BYTE x,y) | source 2252..2346 code $3BA2-$3BE5
    locate1+$0007 #0005
      original : $3BB6 8E B0 3B STX $3BB0 ; y $3BB0
      generated: $3BA9 8E A3 3B STX $3BA3
      orig operand: y $3BB0
      source   : Routine locate1 samples/toolkit/original/extracted/GEM.DEM:147:1 | BYTE FUNC locate1(BYTE x,y) | source 2252..2346 code $3BA2-$3BE5
    locate1+$000A #0006
      original : $3BB9 8D AF 3B STA $3BAF ; x $3BAF
      generated: $3BAC 8D A2 3B STA $3BA2
      orig operand: x $3BAF
      source   : Routine locate1 samples/toolkit/original/extracted/GEM.DEM:147:1 | BYTE FUNC locate1(BYTE x,y) | source 2252..2346 code $3BA2-$3BE5
    locate1+$000D #0007
      original : $3BBC AD B0 3B LDA $3BB0 ; y $3BB0
      generated: $3BAF AD A3 3B LDA $3BA3
      orig operand: y $3BB0
      source   : Statement assignment samples/toolkit/original/extracted/GEM.DEM:151:4 | pixel = (linept(y) + x) | source 2307..2330 code $3BAF-$3BD5
    locate1+$0026 #0021
      original : $3BD5 6D AF 3B ADC $3BAF ; x $3BAF
      generated: $3BC8 6D A2 3B ADC $3BA2
      orig operand: x $3BAF
      source   : Statement assignment samples/toolkit/original/extracted/GEM.DEM:151:4 | pixel = (linept(y) + x) | source 2307..2330 code $3BAF-$3BD5
    locate1+$0029 #0022
      original : $3BD8 8D B1 3B STA $3BB1 ; pixel $3BB1
      generated: $3BCB 8D A4 3B STA $3BA4
      orig operand: pixel $3BB1
      source   : Statement assignment samples/toolkit/original/extracted/GEM.DEM:151:4 | pixel = (linept(y) + x) | source 2307..2330 code $3BAF-$3BD5
    locate1+$0031 #0026
      original : $3BE0 8D B2 3B STA $3BB2
      generated: $3BD3 8D A5 3B STA $3BA5
      source   : Statement assignment samples/toolkit/original/extracted/GEM.DEM:151:4 | pixel = (linept(y) + x) | source 2307..2330 code $3BAF-$3BD5
    locate1+$0034 #0027
      original : $3BE3 AD B1 3B LDA $3BB1 ; pixel $3BB1
      generated: $3BD6 AD A4 3B LDA $3BA4
      orig operand: pixel $3BB1
      source   : Statement return samples/toolkit/original/extracted/GEM.DEM:153:8 | RETURN(pixel^) | source 2339..2345 code $3BD6-$3BE5
    locate1+$0039 #0029
      original : $3BE8 AD B2 3B LDA $3BB2
      generated: $3BDB AD A5 3B LDA $3BA5
      source   : Statement return samples/toolkit/original/extracted/GEM.DEM:153:8 | RETURN(pixel^) | source 2339..2345 code $3BD6-$3BE5
  newdir                   len 180 -> 233 (+53)  addr $3BF3 -> $3BE6
    newdir+$0001 #0001
      original : $3BF4 4C F7 3B JMP $3BF7
      generated: $3BE7 4C EA 3B JMP $3BEA
      orig owner: newdir $3BF4
      source   : Routine newdir samples/toolkit/original/extracted/GEM.DEM:155:1 | PROC newdir(BYTE r) | source 2348..2467 code $3BE6-$3CCE
    newdir+$0004 #0002
      original : $3BF7 8D F3 3B STA $3BF3 ; r $3BF3
      generated: $3BEA 8D E6 3B STA $3BE6
      orig operand: r $3BF3
      source   : Routine newdir samples/toolkit/original/extracted/GEM.DEM:155:1 | PROC newdir(BYTE r) | source 2348..2467 code $3BE6-$3CCE
    newdir+$0007 #0003
      original : $3BFA AD F3 3B LDA $3BF3 ; r $3BF3
      generated: $3BED AD E6 3B LDA $3BE6
      orig operand: r $3BF3
      source   : Statement assignment samples/toolkit/original/extracted/GEM.DEM:158:4 | xd(r)=Rand(3) + -1 | source 2381..2399 code $3BED-$3C31
    newdir+$0026 #0020
      original : $3C19 68       PLA
      generated: $3C0C A9 00    LDA #$00
      source   : Statement assignment samples/toolkit/original/extracted/GEM.DEM:158:4 | xd(r)=Rand(3) + -1 | source 2381..2399 code $3BED-$3C31
    newdir+$0027 #0021
      original : $3C1A 85 AE    STA $AE
      generated: $3C0E 85 AD    STA $AD
      source   : Statement assignment samples/toolkit/original/extracted/GEM.DEM:158:4 | xd(r)=Rand(3) + -1 | source 2381..2399 code $3BED-$3C31
    newdir+$0029 #0022
      original : $3C1C 68       PLA
      generated: $3C10 A5 A0    LDA $A0
      source   : Statement assignment samples/toolkit/original/extracted/GEM.DEM:158:4 | xd(r)=Rand(3) + -1 | source 2381..2399 code $3BED-$3C31
    newdir+$002A #0023
      original : $3C1D 85 AF    STA $AF
      generated: $3C12 85 AC    STA $AC
      source   : Statement assignment samples/toolkit/original/extracted/GEM.DEM:158:4 | xd(r)=Rand(3) + -1 | source 2381..2399 code $3BED-$3C31
    newdir+$002D #0025
      original : $3C20 A5 A0    LDA $A0
      generated: $3C15 A5 AC    LDA $AC
      source   : Statement assignment samples/toolkit/original/extracted/GEM.DEM:158:4 | xd(r)=Rand(3) + -1 | source 2381..2399 code $3BED-$3C31
    newdir+$0031 #0027
      original : $3C24 85 AC    STA $AC
      generated: $3C19 85 A0    STA $A0
      source   : Statement assignment samples/toolkit/original/extracted/GEM.DEM:158:4 | xd(r)=Rand(3) + -1 | source 2381..2399 code $3BED-$3C31
    newdir+$0033 #0028
      original : $3C26 A9 00    LDA #$00
      generated: $3C1B A5 AD    LDA $AD
      source   : Statement assignment samples/toolkit/original/extracted/GEM.DEM:158:4 | xd(r)=Rand(3) + -1 | source 2381..2399 code $3BED-$3C31
    newdir+$0037 #0030
      original : $3C2A A0 01    LDY #$01
      generated: $3C1F 85 A1    STA $A1
      source   : Statement assignment samples/toolkit/original/extracted/GEM.DEM:158:4 | xd(r)=Rand(3) + -1 | source 2381..2399 code $3BED-$3C31
    newdir+$0039 #0031
      original : $3C2C 91 AE    STA ($AE),Y
      generated: $3C21 68       PLA
      source   : Statement assignment samples/toolkit/original/extracted/GEM.DEM:158:4 | xd(r)=Rand(3) + -1 | source 2381..2399 code $3BED-$3C31
    newdir+$003B #0032
      original : $3C2E A5 AC    LDA $AC
      generated: $3C22 85 AE    STA $AE
      source   : Statement assignment samples/toolkit/original/extracted/GEM.DEM:158:4 | xd(r)=Rand(3) + -1 | source 2381..2399 code $3BED-$3C31
    newdir+$003D #0033
      original : $3C30 88       DEY
      generated: $3C24 68       PLA
      source   : Statement assignment samples/toolkit/original/extracted/GEM.DEM:158:4 | xd(r)=Rand(3) + -1 | source 2381..2399 code $3BED-$3C31
    newdir+$003E #0034
      original : $3C31 91 AE    STA ($AE),Y
      generated: $3C25 85 AF    STA $AF
      source   : Statement assignment samples/toolkit/original/extracted/GEM.DEM:158:4 | xd(r)=Rand(3) + -1 | source 2381..2399 code $3BED-$3C31
    newdir+$0040 #0035
      original : $3C33 AD F3 3B LDA $3BF3 ; r $3BF3
      generated: $3C27 A5 A1    LDA $A1
      orig operand: r $3BF3
      source   : Statement assignment samples/toolkit/original/extracted/GEM.DEM:158:4 | xd(r)=Rand(3) + -1 | source 2381..2399 code $3BED-$3C31
    newdir+$0043 #0036
      original : $3C36 0A       ASL A
      generated: $3C29 A0 01    LDY #$01
      source   : Statement assignment samples/toolkit/original/extracted/GEM.DEM:158:4 | xd(r)=Rand(3) + -1 | source 2381..2399 code $3BED-$3C31
    newdir+$0044 #0037
      original : $3C37 08       PHP
      generated: $3C2B 91 AE    STA ($AE),Y
      source   : Statement assignment samples/toolkit/original/extracted/GEM.DEM:158:4 | xd(r)=Rand(3) + -1 | source 2381..2399 code $3BED-$3C31
    newdir+$0045 #0038
      original : $3C38 18       CLC
      generated: $3C2D A5 A0    LDA $A0
      source   : Statement assignment samples/toolkit/original/extracted/GEM.DEM:158:4 | xd(r)=Rand(3) + -1 | source 2381..2399 code $3BED-$3C31
    newdir+$0046 #0039
      original : $3C39 6D 11 30 ADC $3011 ; yd $3011
      generated: $3C2F 88       DEY
      orig operand: yd $3011
      source   : Statement assignment samples/toolkit/original/extracted/GEM.DEM:158:4 | xd(r)=Rand(3) + -1 | source 2381..2399 code $3BED-$3C31
    newdir+$0049 #0040
      original : $3C3C 85 AE    STA $AE
      generated: $3C30 91 AE    STA ($AE),Y
      source   : Statement assignment samples/toolkit/original/extracted/GEM.DEM:158:4 | xd(r)=Rand(3) + -1 | source 2381..2399 code $3BED-$3C31
    newdir+$004B #0041
      original : $3C3E A9 00    LDA #$00
      generated: $3C32 AD E6 3B LDA $3BE6
      source   : Statement assignment samples/toolkit/original/extracted/GEM.DEM:160:4 | yd(r)=Rand(3) + -1 | source 2404..2422 code $3C32-$3C76
    newdir+$004D #0042
      original : $3C40 2A       ROL A
      generated: $3C35 0A       ASL A
      source   : Statement assignment samples/toolkit/original/extracted/GEM.DEM:160:4 | yd(r)=Rand(3) + -1 | source 2404..2422 code $3C32-$3C76
    newdir+$004E #0043
      original : $3C41 28       PLP
      generated: $3C36 08       PHP
      source   : Statement assignment samples/toolkit/original/extracted/GEM.DEM:160:4 | yd(r)=Rand(3) + -1 | source 2404..2422 code $3C32-$3C76
  walls                    len 231 -> 239 (+8)  addr $3CA7 -> $3CCF
    walls+$0003 #0003
      original : $3CAA 4C AD 3C JMP $3CAD
      generated: $3CD2 4C D5 3C JMP $3CD5
      orig owner: walls $3CAA
      source   : Routine walls samples/toolkit/original/extracted/GEM.DEM:166:1 | PROC walls() | source 2469..2821 code $3CCF-$3DBD
    walls+$0008 #0005
      original : $3CAF 8C A7 3C STY $3CA7 ; i $3CA7
      generated: $3CD7 8C CF 3C STY $3CCF
      orig operand: i $3CA7
      source   : Statement for samples/toolkit/original/extracted/GEM.DEM:169:4 | FOR i = 0 TO 19 | source 2500..2559 code $3CD5-$3CFF
    walls+$000D #0007
      original : $3CB4 CD A7 3C CMP $3CA7 ; i $3CA7
      generated: $3CDC CD CF 3C CMP $3CCF
      orig operand: i $3CA7
      source   : Statement for samples/toolkit/original/extracted/GEM.DEM:169:4 | FOR i = 0 TO 19 | source 2500..2559 code $3CD5-$3CFF
    walls+$0012 #0009
      original : $3CB9 4C D8 3C JMP $3CD8
      generated: $3CE1 4C 00 3D JMP $3D00
      source   : Statement for samples/toolkit/original/extracted/GEM.DEM:169:4 | FOR i = 0 TO 19 | source 2500..2559 code $3CD5-$3CFF
    walls+$001A #0012
      original : $3CC1 AD A7 3C LDA $3CA7 ; i $3CA7
      generated: $3CE9 AD CF 3C LDA $3CCF
      orig operand: i $3CA7
      source   : Statement call samples/toolkit/original/extracted/GEM.DEM:171:4 | plot1(i,0,wa) plot1(i,23,wa) | source 2525..2538 code $3CE4-$3CEE
    walls+$001D #0013
      original : $3CC4 20 6E 3B JSR $3B6E ; plot1 $3B6E
      generated: $3CEC 20 61 3B JSR $3B61
      orig operand: plot1 $3B6E
      source   : Statement call samples/toolkit/original/extracted/GEM.DEM:171:4 | plot1(i,0,wa) plot1(i,23,wa) | source 2525..2538 code $3CE4-$3CEE
    walls+$0025 #0016
      original : $3CCC AD A7 3C LDA $3CA7 ; i $3CA7
      generated: $3CF4 AD CF 3C LDA $3CCF
      orig operand: i $3CA7
      source   : Statement call samples/toolkit/original/extracted/GEM.DEM:171:18 | plot1(i,0,wa) plot1(i,23,wa) | source 2539..2553 code $3CEF-$3CF9
    walls+$0028 #0017
      original : $3CCF 20 6E 3B JSR $3B6E ; plot1 $3B6E
      generated: $3CF7 20 61 3B JSR $3B61
      orig operand: plot1 $3B6E
      source   : Statement call samples/toolkit/original/extracted/GEM.DEM:171:18 | plot1(i,0,wa) plot1(i,23,wa) | source 2539..2553 code $3CEF-$3CF9
    walls+$002B #0018
      original : $3CD2 EE A7 3C INC $3CA7 ; i $3CA7
      generated: $3CFA EE CF 3C INC $3CCF
      orig operand: i $3CA7
      source   : Statement for samples/toolkit/original/extracted/GEM.DEM:169:4 | FOR i = 0 TO 19 | source 2500..2559 code $3CD5-$3CFF
    walls+$002E #0019
      original : $3CD5 4C B2 3C JMP $3CB2
      generated: $3CFD 4C DA 3C JMP $3CDA
      source   : Statement for samples/toolkit/original/extracted/GEM.DEM:169:4 | FOR i = 0 TO 19 | source 2500..2559 code $3CD5-$3CFF
    walls+$0033 #0021
      original : $3CDA 8C A7 3C STY $3CA7 ; i $3CA7
      generated: $3D02 8C CF 3C STY $3CCF
      orig operand: i $3CA7
      source   : Statement for samples/toolkit/original/extracted/GEM.DEM:174:4 | FOR i = 0 TO 23 | source 2564..2623 code $3D00-$3D2A
    walls+$0038 #0023
      original : $3CDF CD A7 3C CMP $3CA7 ; i $3CA7
      generated: $3D07 CD CF 3C CMP $3CCF
      orig operand: i $3CA7
      source   : Statement for samples/toolkit/original/extracted/GEM.DEM:174:4 | FOR i = 0 TO 23 | source 2564..2623 code $3D00-$3D2A
    walls+$003D #0025
      original : $3CE4 4C 03 3D JMP $3D03
      generated: $3D0C 4C 2B 3D JMP $3D2B
      source   : Statement for samples/toolkit/original/extracted/GEM.DEM:174:4 | FOR i = 0 TO 23 | source 2564..2623 code $3D00-$3D2A
    walls+$0043 #0027
      original : $3CEA AE A7 3C LDX $3CA7 ; i $3CA7
      generated: $3D12 AE CF 3C LDX $3CCF
      orig operand: i $3CA7
      source   : Statement call samples/toolkit/original/extracted/GEM.DEM:176:4 | plot1(0,i,wa) plot1(19,i,wa) | source 2589..2602 code $3D0F-$3D19
    walls+$0048 #0029
      original : $3CEF 20 6E 3B JSR $3B6E ; plot1 $3B6E
      generated: $3D17 20 61 3B JSR $3B61
      orig operand: plot1 $3B6E
      source   : Statement call samples/toolkit/original/extracted/GEM.DEM:176:4 | plot1(0,i,wa) plot1(19,i,wa) | source 2589..2602 code $3D0F-$3D19
    walls+$004E #0031
      original : $3CF5 AE A7 3C LDX $3CA7 ; i $3CA7
      generated: $3D1D AE CF 3C LDX $3CCF
      orig operand: i $3CA7
      source   : Statement call samples/toolkit/original/extracted/GEM.DEM:176:18 | plot1(0,i,wa) plot1(19,i,wa) | source 2603..2617 code $3D1A-$3D24
    walls+$0053 #0033
      original : $3CFA 20 6E 3B JSR $3B6E ; plot1 $3B6E
      generated: $3D22 20 61 3B JSR $3B61
      orig operand: plot1 $3B6E
      source   : Statement call samples/toolkit/original/extracted/GEM.DEM:176:18 | plot1(0,i,wa) plot1(19,i,wa) | source 2603..2617 code $3D1A-$3D24
    walls+$0056 #0034
      original : $3CFD EE A7 3C INC $3CA7 ; i $3CA7
      generated: $3D25 EE CF 3C INC $3CCF
      orig operand: i $3CA7
      source   : Statement for samples/toolkit/original/extracted/GEM.DEM:174:4 | FOR i = 0 TO 23 | source 2564..2623 code $3D00-$3D2A
    walls+$0059 #0035
      original : $3D00 4C DD 3C JMP $3CDD
      generated: $3D28 4C 05 3D JMP $3D05
      source   : Statement for samples/toolkit/original/extracted/GEM.DEM:174:4 | FOR i = 0 TO 23 | source 2564..2623 code $3D00-$3D2A
    walls+$005E #0037
      original : $3D05 8C A7 3C STY $3CA7 ; i $3CA7
      generated: $3D2D 8C CF 3C STY $3CCF
      orig operand: i $3CA7
      source   : Statement for samples/toolkit/original/extracted/GEM.DEM:179:4 | FOR i = 0 TO 30 | source 2628..2709 code $3D2B-$3D6D
    walls+$0063 #0039
      original : $3D0A CD A7 3C CMP $3CA7 ; i $3CA7
      generated: $3D32 CD CF 3C CMP $3CCF
      orig operand: i $3CA7
      source   : Statement for samples/toolkit/original/extracted/GEM.DEM:179:4 | FOR i = 0 TO 30 | source 2628..2709 code $3D2B-$3D6D
    walls+$0068 #0041
      original : $3D0F 4C 3E 3D JMP $3D3E
      generated: $3D37 4C 6E 3D JMP $3D6E
      source   : Statement for samples/toolkit/original/extracted/GEM.DEM:179:4 | FOR i = 0 TO 30 | source 2628..2709 code $3D2B-$3D6D
    walls+$0070 #0044
      original : $3D17 18       CLC
      generated: $3D3F A5 A0    LDA $A0
      source   : Statement assignment samples/toolkit/original/extracted/GEM.DEM:181:4 | x = Rand(10)+5 | source 2653..2667 code $3D3A-$3D4A
    walls+$0071 #0045
      original : $3D18 A5 A0    LDA $A0
      generated: $3D41 85 AC    STA $AC
      source   : Statement assignment samples/toolkit/original/extracted/GEM.DEM:181:4 | x = Rand(10)+5 | source 2653..2667 code $3D3A-$3D4A
  initsnd                  len 22 -> 22 (+0)  addr $3D8E -> $3DBE
    initsnd+$0000 #0000
      original : $3D8E 4C 91 3D JMP $3D91
      generated: $3DBE 4C C1 3D JMP $3DC1
      orig owner: initsnd $3D8E
      source   : Routine initsnd samples/toolkit/original/extracted/GEM.DEM:194:1 | PROC initsnd() | source 2823..2914 code $3DBE-$3DD3
  plotgem                  len 19 -> 19 (+0)  addr $3DA4 -> $3DD4
    plotgem+$0000 #0000
      original : $3DA4 4C A7 3D JMP $3DA7
      generated: $3DD4 4C D7 3D JMP $3DD7
      orig owner: plotgem $3DA4
      source   : Routine plotgem samples/toolkit/original/extracted/GEM.DEM:200:1 | PROC plotgem() | source 2917..2970 code $3DD4-$3DE6
    plotgem+$000A #0004
      original : $3DAE 20 6E 3B JSR $3B6E ; plot1 $3B6E
      generated: $3DDE 20 61 3B JSR $3B61
      orig operand: plot1 $3B6E
      source   : Statement call samples/toolkit/original/extracted/GEM.DEM:201:4 | plot1(9,11,gm) | source 2935..2949 code $3DD7-$3DE0
  rinit                    len 301 -> 327 (+26)  addr $3DB7 -> $3DE7
    rinit+$0002 #0002
      original : $3DB9 4C BC 3D JMP $3DBC
      generated: $3DE9 4C EC 3D JMP $3DEC
      orig owner: rinit $3DB9
      source   : Routine rinit samples/toolkit/original/extracted/GEM.DEM:205:1 | PROC rinit() | source 2975..3545 code $3DE7-$3F2D
    rinit+$0005 #0003
      original : $3DBC 20 AA 3C JSR $3CAA ; walls $3CAA
      generated: $3DEC 20 D2 3C JSR $3CD2
      orig operand: walls $3CAA
      source   : Statement call samples/toolkit/original/extracted/GEM.DEM:208:4 | walls() | source 3007..3014 code $3DEC-$3DEE
    rinit+$0008 #0004
      original : $3DBF 20 A4 3D JSR $3DA4 ; plotgem $3DA4
      generated: $3DEF 20 D4 3D JSR $3DD4
      orig operand: plotgem $3DA4
      source   : Statement call samples/toolkit/original/extracted/GEM.DEM:209:4 | plotgem() | source 3018..3027 code $3DEF-$3DF1
    rinit+$000B #0005
      original : $3DC2 20 8E 3D JSR $3D8E ; initsnd $3D8E
      generated: $3DF2 20 BE 3D JSR $3DBE
      orig operand: initsnd $3D8E
      source   : Statement call samples/toolkit/original/extracted/GEM.DEM:210:4 | initsnd() | source 3031..3040 code $3DF2-$3DF4
    rinit+$0010 #0007
      original : $3DC7 8C B8 3D STY $3DB8 ; r $3DB8
      generated: $3DF7 8C E8 3D STY $3DE8
      orig operand: r $3DB8
      source   : Statement for samples/toolkit/original/extracted/GEM.DEM:212:4 | FOR r = 0 TO numbots-1 | source 3045..3537 code $3DF5-$3F2C
    rinit+$0013 #0008
      original : $3DCA 38       SEC
      generated: $3DFA AD E8 3D LDA $3DE8
      source   : Statement for samples/toolkit/original/extracted/GEM.DEM:212:4 | FOR r = 0 TO numbots-1 | source 3045..3537 code $3DF5-$3F2C
    rinit+$0014 #0009
      original : $3DCB AD 08 30 LDA $3008 ; numbots $3008
      generated: $3DFD 85 AC    STA $AC
      orig operand: numbots $3008
      source   : Statement for samples/toolkit/original/extracted/GEM.DEM:212:4 | FOR r = 0 TO numbots-1 | source 3045..3537 code $3DF5-$3F2C
    rinit+$0017 #0010
      original : $3DCE E9 01    SBC #$01
      generated: $3DFF 38       SEC
      source   : Statement for samples/toolkit/original/extracted/GEM.DEM:212:4 | FOR r = 0 TO numbots-1 | source 3045..3537 code $3DF5-$3F2C
    rinit+$0019 #0011
      original : $3DD0 8D DE 3D STA $3DDE
      generated: $3E00 AD 08 30 LDA $3008
      source   : Statement for samples/toolkit/original/extracted/GEM.DEM:212:4 | FOR r = 0 TO numbots-1 | source 3045..3537 code $3DF5-$3F2C
    rinit+$001C #0012
      original : $3DD3 AD DE 3D LDA $3DDE
      generated: $3E03 E9 01    SBC #$01
      source   : Statement for samples/toolkit/original/extracted/GEM.DEM:212:4 | FOR r = 0 TO numbots-1 | source 3045..3537 code $3DF5-$3F2C
    rinit+$001F #0013
      original : $3DD6 CD B8 3D CMP $3DB8 ; r $3DB8
      generated: $3E05 85 C0    STA $C0
      orig operand: r $3DB8
      source   : Statement for samples/toolkit/original/extracted/GEM.DEM:212:4 | FOR r = 0 TO numbots-1 | source 3045..3537 code $3DF5-$3F2C
    rinit+$0022 #0014
      original : $3DD9 B0 04    BCS $3DDF
      generated: $3E07 A5 AC    LDA $AC
      source   : Statement for samples/toolkit/original/extracted/GEM.DEM:212:4 | FOR r = 0 TO numbots-1 | source 3045..3537 code $3DF5-$3F2C
    rinit+$0024 #0015
      original : $3DDB 4C E3 3E JMP $3EE3
      generated: $3E09 C5 C0    CMP $C0
      source   : Statement for samples/toolkit/original/extracted/GEM.DEM:212:4 | FOR r = 0 TO numbots-1 | source 3045..3537 code $3DF5-$3F2C
    rinit+$0027 #0016
      original : $3DDE 00       BRK
      generated: $3E0B 90 05    BCC $3E12
      source   : Statement for samples/toolkit/original/extracted/GEM.DEM:212:4 | FOR r = 0 TO numbots-1 | source 3045..3537 code $3DF5-$3F2C
    rinit+$0028 #0017
      original : $3DDF AD B8 3D LDA $3DB8 ; r $3DB8
      generated: $3E0D F0 03    BEQ $3E12
      orig operand: r $3DB8
      source   : Statement for samples/toolkit/original/extracted/GEM.DEM:212:4 | FOR r = 0 TO numbots-1 | source 3045..3537 code $3DF5-$3F2C
    rinit+$002B #0018
      original : $3DE2 C9 04    CMP #$04
      generated: $3E0F 4C 2D 3F JMP $3F2D
      source   : Statement for samples/toolkit/original/extracted/GEM.DEM:212:4 | FOR r = 0 TO numbots-1 | source 3045..3537 code $3DF5-$3F2C
    rinit+$002D #0019
      original : $3DE4 90 03    BCC $3DE9
      generated: $3E12 AD E8 3D LDA $3DE8
      source   : Statement if samples/toolkit/original/extracted/GEM.DEM:215:7 | IF r<4 | source 3087..3338 code $3E12-$3EA9
    rinit+$002F #0020
      original : $3DE6 4C 04 3E JMP $3E04
      generated: $3E15 C9 04    CMP #$04
      source   : Statement if samples/toolkit/original/extracted/GEM.DEM:215:7 | IF r<4 | source 3087..3338 code $3E12-$3EA9
    rinit+$0032 #0021
      original : $3DE9 AE B8 3D LDX $3DB8 ; r $3DB8
      generated: $3E17 90 03    BCC $3E1C
      orig operand: r $3DB8
      source   : Statement if samples/toolkit/original/extracted/GEM.DEM:215:7 | IF r<4 | source 3087..3338 code $3E12-$3EA9
    rinit+$0035 #0022
      original : $3DEC BD 25 38 LDA $3825,X ; xst $3825
      generated: $3E19 4C 31 3E JMP $3E31
      orig operand: xst $3825
      source   : Statement if samples/toolkit/original/extracted/GEM.DEM:215:7 | IF r<4 | source 3087..3338 code $3E12-$3EA9
    rinit+$0038 #0023
      original : $3DEF AE B8 3D LDX $3DB8 ; r $3DB8
      generated: $3E1C AE E8 3D LDX $3DE8
      orig operand: r $3DB8
      source   : Statement assignment samples/toolkit/original/extracted/GEM.DEM:216:12 | THEN x(r)=xst(r) y(r)=yst(r) | source 3105..3116 code $3E1C-$3E24
    rinit+$003B #0024
      original : $3DF2 9D 25 34 STA $3425,X ; x $3425
      generated: $3E1F BD 25 38 LDA $3825,X
      orig operand: x $3425
      source   : Statement assignment samples/toolkit/original/extracted/GEM.DEM:216:12 | THEN x(r)=xst(r) y(r)=yst(r) | source 3105..3116 code $3E1C-$3E24
    rinit+$003E #0025
      original : $3DF5 AE B8 3D LDX $3DB8 ; r $3DB8
      generated: $3E22 9D 25 34 STA $3425,X
      orig operand: r $3DB8
      source   : Statement assignment samples/toolkit/original/extracted/GEM.DEM:216:12 | THEN x(r)=xst(r) y(r)=yst(r) | source 3105..3116 code $3E1C-$3E24
    rinit+$0041 #0026
      original : $3DF8 BD 29 38 LDA $3829,X ; yst $3829
      generated: $3E25 AE E8 3D LDX $3DE8
      orig operand: yst $3829
      source   : Statement assignment samples/toolkit/original/extracted/GEM.DEM:216:24 | THEN x(r)=xst(r) y(r)=yst(r) | source 3117..3128 code $3E25-$3E2D
  scores                   len 176 -> 215 (+39)  addr $3EE4 -> $3F2E
    scores+$0001 #0001
      original : $3EE5 4C E8 3E JMP $3EE8
      generated: $3F2F 4C 32 3F JMP $3F32
      orig owner: scores $3EE5
      source   : Routine scores samples/toolkit/original/extracted/GEM.DEM:241:1 | PROC scores() | source 3547..3831 code $3F2E-$4004
    scores+$0009 #0004
      original : $3EED 8C E4 3E STY $3EE4 ; i $3EE4
      generated: $3F37 8C 2E 3F STY $3F2E
      orig operand: i $3EE4
      source   : Statement for samples/toolkit/original/extracted/GEM.DEM:246:4 | FOR i = 0 TO 3 | source 3591..3823 code $3F37-$4003
    scores+$000E #0006
      original : $3EF2 CD E4 3E CMP $3EE4 ; i $3EE4
      generated: $3F3C CD 2E 3F CMP $3F2E
      orig operand: i $3EE4
      source   : Statement for samples/toolkit/original/extracted/GEM.DEM:246:4 | FOR i = 0 TO 3 | source 3591..3823 code $3F37-$4003
    scores+$0013 #0008
      original : $3EF7 4C 93 3F JMP $3F93
      generated: $3F41 4C 04 40 JMP $4004
      source   : Statement for samples/toolkit/original/extracted/GEM.DEM:246:4 | FOR i = 0 TO 3 | source 3591..3823 code $3F37-$4003
    scores+$0018 #0010
      original : $3EFC AE E4 3E LDX $3EE4 ; i $3EE4
      generated: $3F46 AE 2E 3F LDX $3F2E
      orig operand: i $3EE4
      source   : Statement if samples/toolkit/original/extracted/GEM.DEM:248:7 | IF score(i)>9 | source 3618..3687 code $3F44-$3F8C
    scores+$001B #0011
      original : $3EFF DD 21 38 CMP $3821,X ; score $3821
      generated: $3F49 BD 21 38 LDA $3821,X
      orig operand: score $3821
      source   : Statement if samples/toolkit/original/extracted/GEM.DEM:248:7 | IF score(i)>9 | source 3618..3687 code $3F44-$3F8C
    scores+$001E #0012
      original : $3F02 90 03    BCC $3F07
      generated: $3F4C C9 00    CMP #$00
      source   : Statement if samples/toolkit/original/extracted/GEM.DEM:248:7 | IF score(i)>9 | source 3618..3687 code $3F44-$3F8C
    scores+$0020 #0013
      original : $3F04 4C 3D 3F JMP $3F3D
      generated: $3F4E 90 03    BCC $3F53
      source   : Statement if samples/toolkit/original/extracted/GEM.DEM:248:7 | IF score(i)>9 | source 3618..3687 code $3F44-$3F8C
    scores+$0023 #0014
      original : $3F07 AE E4 3E LDX $3EE4 ; i $3EE4
      generated: $3F50 4C 8D 3F JMP $3F8D
      orig operand: i $3EE4
      source   : Statement if samples/toolkit/original/extracted/GEM.DEM:248:7 | IF score(i)>9 | source 3618..3687 code $3F44-$3F8C
    scores+$0026 #0015
      original : $3F0A BD 2D 38 LDA $382D,X ; xsc $382D
      generated: $3F53 AE 2E 3F LDX $3F2E
      orig operand: xsc $382D
      source   : Statement call samples/toolkit/original/extracted/GEM.DEM:249:12 | THEN plot1(xsc(i),ysc(i),score(i)/10+nm) | source 3643..3678 code $3F53-$3F8C
    scores+$0029 #0016
      original : $3F0D 85 A0    STA $A0
      generated: $3F56 BD 2D 38 LDA $382D,X
      source   : Statement call samples/toolkit/original/extracted/GEM.DEM:249:12 | THEN plot1(xsc(i),ysc(i),score(i)/10+nm) | source 3643..3678 code $3F53-$3F8C
    scores+$002B #0017
      original : $3F0F AE E4 3E LDX $3EE4 ; i $3EE4
      generated: $3F59 85 A0    STA $A0
      orig operand: i $3EE4
      source   : Statement call samples/toolkit/original/extracted/GEM.DEM:249:12 | THEN plot1(xsc(i),ysc(i),score(i)/10+nm) | source 3643..3678 code $3F53-$3F8C
    scores+$002E #0018
      original : $3F12 BD 31 38 LDA $3831,X ; ysc $3831
      generated: $3F5B AE 2E 3F LDX $3F2E
      orig operand: ysc $3831
      source   : Statement call samples/toolkit/original/extracted/GEM.DEM:249:12 | THEN plot1(xsc(i),ysc(i),score(i)/10+nm) | source 3643..3678 code $3F53-$3F8C
    scores+$0031 #0019
      original : $3F15 85 A1    STA $A1
      generated: $3F5E BD 31 38 LDA $3831,X
      source   : Statement call samples/toolkit/original/extracted/GEM.DEM:249:12 | THEN plot1(xsc(i),ysc(i),score(i)/10+nm) | source 3643..3678 code $3F53-$3F8C
    scores+$0033 #0020
      original : $3F17 A9 00    LDA #$00
      generated: $3F61 85 A1    STA $A1
      source   : Statement call samples/toolkit/original/extracted/GEM.DEM:249:12 | THEN plot1(xsc(i),ysc(i),score(i)/10+nm) | source 3643..3678 code $3F53-$3F8C
    scores+$0035 #0021
      original : $3F19 85 85    STA $85
      generated: $3F63 AE 2E 3F LDX $3F2E
      source   : Statement call samples/toolkit/original/extracted/GEM.DEM:249:12 | THEN plot1(xsc(i),ysc(i),score(i)/10+nm) | source 3643..3678 code $3F53-$3F8C
    scores+$0037 #0022
      original : $3F1B A9 0A    LDA #$0A
      generated: $3F66 BD 21 38 LDA $3821,X
      source   : Statement call samples/toolkit/original/extracted/GEM.DEM:249:12 | THEN plot1(xsc(i),ysc(i),score(i)/10+nm) | source 3643..3678 code $3F53-$3F8C
    scores+$0039 #0023
      original : $3F1D 85 84    STA $84
      generated: $3F69 85 AE    STA $AE
      source   : Statement call samples/toolkit/original/extracted/GEM.DEM:249:12 | THEN plot1(xsc(i),ysc(i),score(i)/10+nm) | source 3643..3678 code $3F53-$3F8C
    scores+$003B #0024
      original : $3F1F AE E4 3E LDX $3EE4 ; i $3EE4
      generated: $3F6B A9 00    LDA #$00
      orig operand: i $3EE4
      source   : Statement call samples/toolkit/original/extracted/GEM.DEM:249:12 | THEN plot1(xsc(i),ysc(i),score(i)/10+nm) | source 3643..3678 code $3F53-$3F8C
    scores+$003E #0025
      original : $3F22 BD 21 38 LDA $3821,X ; score $3821
      generated: $3F6D 85 85    STA $85
      orig operand: score $3821
      source   : Statement call samples/toolkit/original/extracted/GEM.DEM:249:12 | THEN plot1(xsc(i),ysc(i),score(i)/10+nm) | source 3643..3678 code $3F53-$3F8C
    scores+$0041 #0026
      original : $3F25 A2 00    LDX #$00
      generated: $3F6F A9 0A    LDA #$0A
      source   : Statement call samples/toolkit/original/extracted/GEM.DEM:249:12 | THEN plot1(xsc(i),ysc(i),score(i)/10+nm) | source 3643..3678 code $3F53-$3F8C
    scores+$0043 #0027
      original : $3F27 20 90 A0 JSR $A090
      generated: $3F71 85 84    STA $84
      source   : Statement call samples/toolkit/original/extracted/GEM.DEM:249:12 | THEN plot1(xsc(i),ysc(i),score(i)/10+nm) | source 3643..3678 code $3F53-$3F8C
    scores+$0046 #0028
      original : $3F2A 85 AE    STA $AE
      generated: $3F73 A5 AE    LDA $AE
      source   : Statement call samples/toolkit/original/extracted/GEM.DEM:249:12 | THEN plot1(xsc(i),ysc(i),score(i)/10+nm) | source 3643..3678 code $3F53-$3F8C
    scores+$0048 #0029
      original : $3F2C 18       CLC
      generated: $3F75 A2 00    LDX #$00
      source   : Statement call samples/toolkit/original/extracted/GEM.DEM:249:12 | THEN plot1(xsc(i),ysc(i),score(i)/10+nm) | source 3643..3678 code $3F53-$3F8C
  regen                    len 235 -> 257 (+22)  addr $3F94 -> $4005
    regen+$0002 #0002
      original : $3F96 4C 99 3F JMP $3F99
      generated: $4007 4C 0A 40 JMP $400A
      orig owner: regen $3F96
      source   : Routine regen samples/toolkit/original/extracted/GEM.DEM:261:1 | PROC regen(BYTE r) | source 3833..4193 code $4005-$4105
    regen+$0005 #0003
      original : $3F99 8D 94 3F STA $3F94 ; r $3F94
      generated: $400A 8D 05 40 STA $4005
      orig operand: r $3F94
      source   : Routine regen samples/toolkit/original/extracted/GEM.DEM:261:1 | PROC regen(BYTE r) | source 3833..4193 code $4005-$4105
    regen+$0008 #0004
      original : $3F9C AD 94 3F LDA $3F94 ; r $3F94
      generated: $400D AD 05 40 LDA $4005
      orig operand: r $3F94
      source   : Statement if samples/toolkit/original/extracted/GEM.DEM:264:7 | IF r=0 THEN x(r)=1 y(r)=1 | source 3871..4060 code $400D-$40B4
    regen+$000D #0006
      original : $3FA1 4C B7 3F JMP $3FB7
      generated: $4012 4C 28 40 JMP $4028
      source   : Statement if samples/toolkit/original/extracted/GEM.DEM:264:7 | IF r=0 THEN x(r)=1 y(r)=1 | source 3871..4060 code $400D-$40B4
    regen+$0010 #0007
      original : $3FA4 A9 01    LDA #$01
      generated: $4015 AE 05 40 LDX $4005
      source   : Statement assignment samples/toolkit/original/extracted/GEM.DEM:264:19 | IF r=0 THEN x(r)=1 y(r)=1 | source 3883..3889 code $4015-$401C
    regen+$0012 #0008
      original : $3FA6 AE 94 3F LDX $3F94 ; r $3F94
      generated: $4018 A9 01    LDA #$01
      orig operand: r $3F94
      source   : Statement assignment samples/toolkit/original/extracted/GEM.DEM:264:19 | IF r=0 THEN x(r)=1 y(r)=1 | source 3883..3889 code $4015-$401C
    regen+$0018 #0010
      original : $3FAC A9 01    LDA #$01
      generated: $401D AE 05 40 LDX $4005
      source   : Statement assignment samples/toolkit/original/extracted/GEM.DEM:264:26 | IF r=0 THEN x(r)=1 y(r)=1 | source 3890..3896 code $401D-$4024
    regen+$001A #0011
      original : $3FAE AE 94 3F LDX $3F94 ; r $3F94
      generated: $4020 A9 01    LDA #$01
      orig operand: r $3F94
      source   : Statement assignment samples/toolkit/original/extracted/GEM.DEM:264:26 | IF r=0 THEN x(r)=1 y(r)=1 | source 3890..3896 code $401D-$4024
    regen+$0020 #0013
      original : $3FB4 4C 2E 40 JMP $402E
      generated: $4025 4C B5 40 JMP $40B5
      source   : Statement if samples/toolkit/original/extracted/GEM.DEM:264:7 | IF r=0 THEN x(r)=1 y(r)=1 | source 3871..4060 code $400D-$40B4
    regen+$0023 #0014
      original : $3FB7 AD 94 3F LDA $3F94 ; r $3F94
      generated: $4028 AD 05 40 LDA $4005
      orig operand: r $3F94
      source   : Statement if samples/toolkit/original/extracted/GEM.DEM:264:7 | IF r=0 THEN x(r)=1 y(r)=1 | source 3871..4060 code $400D-$40B4
    regen+$002A #0017
      original : $3FBE 4C D4 3F JMP $3FD4
      generated: $402F 4C 45 40 JMP $4045
      source   : Statement if samples/toolkit/original/extracted/GEM.DEM:264:7 | IF r=0 THEN x(r)=1 y(r)=1 | source 3871..4060 code $400D-$40B4
    regen+$002D #0018
      original : $3FC1 A9 12    LDA #$12
      generated: $4032 AE 05 40 LDX $4005
      source   : Statement assignment samples/toolkit/original/extracted/GEM.DEM:265:23 | ELSEIF r=1 THEN x(r)=18 y(r)=1 | source 3919..3926 code $4032-$4039
    regen+$002F #0019
      original : $3FC3 AE 94 3F LDX $3F94 ; r $3F94
      generated: $4035 A9 12    LDA #$12
      orig operand: r $3F94
      source   : Statement assignment samples/toolkit/original/extracted/GEM.DEM:265:23 | ELSEIF r=1 THEN x(r)=18 y(r)=1 | source 3919..3926 code $4032-$4039
    regen+$0035 #0021
      original : $3FC9 A9 01    LDA #$01
      generated: $403A AE 05 40 LDX $4005
      source   : Statement assignment samples/toolkit/original/extracted/GEM.DEM:265:31 | ELSEIF r=1 THEN x(r)=18 y(r)=1 | source 3927..3933 code $403A-$4041
    regen+$0037 #0022
      original : $3FCB AE 94 3F LDX $3F94 ; r $3F94
      generated: $403D A9 01    LDA #$01
      orig operand: r $3F94
      source   : Statement assignment samples/toolkit/original/extracted/GEM.DEM:265:31 | ELSEIF r=1 THEN x(r)=18 y(r)=1 | source 3927..3933 code $403A-$4041
    regen+$003D #0024
      original : $3FD1 4C 2E 40 JMP $402E
      generated: $4042 4C B5 40 JMP $40B5
      source   : Statement if samples/toolkit/original/extracted/GEM.DEM:264:7 | IF r=0 THEN x(r)=1 y(r)=1 | source 3871..4060 code $400D-$40B4
    regen+$0040 #0025
      original : $3FD4 AD 94 3F LDA $3F94 ; r $3F94
      generated: $4045 AD 05 40 LDA $4005
      orig operand: r $3F94
      source   : Statement if samples/toolkit/original/extracted/GEM.DEM:264:7 | IF r=0 THEN x(r)=1 y(r)=1 | source 3871..4060 code $400D-$40B4
    regen+$0047 #0028
      original : $3FDB 4C F1 3F JMP $3FF1
      generated: $404C 4C 62 40 JMP $4062
      source   : Statement if samples/toolkit/original/extracted/GEM.DEM:264:7 | IF r=0 THEN x(r)=1 y(r)=1 | source 3871..4060 code $400D-$40B4
    regen+$004A #0029
      original : $3FDE A9 01    LDA #$01
      generated: $404F AE 05 40 LDX $4005
      source   : Statement assignment samples/toolkit/original/extracted/GEM.DEM:266:23 | ELSEIF r=2 THEN x(r)=1 y(r)=22 | source 3956..3962 code $404F-$4056
    regen+$004C #0030
      original : $3FE0 AE 94 3F LDX $3F94 ; r $3F94
      generated: $4052 A9 01    LDA #$01
      orig operand: r $3F94
      source   : Statement assignment samples/toolkit/original/extracted/GEM.DEM:266:23 | ELSEIF r=2 THEN x(r)=1 y(r)=22 | source 3956..3962 code $404F-$4056
    regen+$0052 #0032
      original : $3FE6 A9 16    LDA #$16
      generated: $4057 AE 05 40 LDX $4005
      source   : Statement assignment samples/toolkit/original/extracted/GEM.DEM:266:30 | ELSEIF r=2 THEN x(r)=1 y(r)=22 | source 3963..3970 code $4057-$405E
    regen+$0054 #0033
      original : $3FE8 AE 94 3F LDX $3F94 ; r $3F94
      generated: $405A A9 16    LDA #$16
      orig operand: r $3F94
      source   : Statement assignment samples/toolkit/original/extracted/GEM.DEM:266:30 | ELSEIF r=2 THEN x(r)=1 y(r)=22 | source 3963..3970 code $4057-$405E
    regen+$005A #0035
      original : $3FEE 4C 2E 40 JMP $402E
      generated: $405F 4C B5 40 JMP $40B5
      source   : Statement if samples/toolkit/original/extracted/GEM.DEM:264:7 | IF r=0 THEN x(r)=1 y(r)=1 | source 3871..4060 code $400D-$40B4
    regen+$005D #0036
      original : $3FF1 AD 94 3F LDA $3F94 ; r $3F94
      generated: $4062 AD 05 40 LDA $4005
      orig operand: r $3F94
      source   : Statement if samples/toolkit/original/extracted/GEM.DEM:264:7 | IF r=0 THEN x(r)=1 y(r)=1 | source 3871..4060 code $400D-$40B4
  ahead                    len 286 -> 316 (+30)  addr $407F -> $4106
    ahead+$0007 #0007
      original : $4086 4C 89 40 JMP $4089
      generated: $410D 4C 10 41 JMP $4110
      orig owner: ahead $4086
      source   : Routine ahead samples/toolkit/original/extracted/GEM.DEM:279:1 | BYTE FUNC ahead(BYTE a,b INT ad,bd) | source 4198..4674 code $4106-$4241
    ahead+$000D #0009
      original : $408C 7F 40 05 .BYTE $7F,$40,$05
      generated: $4113 06 41 05 .BYTE $06,$41,$05
      source   : Routine ahead samples/toolkit/original/extracted/GEM.DEM:279:1 | BYTE FUNC ahead(BYTE a,b INT ad,bd) | source 4198..4674 code $4106-$4241
    ahead+$0011 #0011
      original : $4090 AD 7F 40 LDA $407F ; a $407F
      generated: $4117 AD 06 41 LDA $4106
      orig operand: a $407F
      source   : Statement assignment samples/toolkit/original/extracted/GEM.DEM:281:4 | pix = locate1(a+ad,b+bd) | source 4249..4273 code $4116-$4133
    ahead+$0014 #0012
      original : $4093 6D 81 40 ADC $4081 ; ad $4081
      generated: $411A 6D 08 41 ADC $4108
      orig operand: ad $4081
      source   : Statement assignment samples/toolkit/original/extracted/GEM.DEM:281:4 | pix = locate1(a+ad,b+bd) | source 4249..4273 code $4116-$4133
    ahead+$001A #0015
      original : $4099 AD 80 40 LDA $4080 ; b $4080
      generated: $4120 AD 07 41 LDA $4107
      orig operand: b $4080
      source   : Statement assignment samples/toolkit/original/extracted/GEM.DEM:281:4 | pix = locate1(a+ad,b+bd) | source 4249..4273 code $4116-$4133
    ahead+$001D #0016
      original : $409C 6D 83 40 ADC $4083 ; bd $4083
      generated: $4123 6D 0A 41 ADC $410A
      orig operand: bd $4083
      source   : Statement assignment samples/toolkit/original/extracted/GEM.DEM:281:4 | pix = locate1(a+ad,b+bd) | source 4249..4273 code $4116-$4133
    ahead+$0026 #0020
      original : $40A5 20 B3 3B JSR $3BB3 ; locate1 $3BB3
      generated: $412C 20 A6 3B JSR $3BA6
      orig operand: locate1 $3BB3
      source   : Statement assignment samples/toolkit/original/extracted/GEM.DEM:281:4 | pix = locate1(a+ad,b+bd) | source 4249..4273 code $4116-$4133
    ahead+$002B #0022
      original : $40AA 8D 85 40 STA $4085 ; pix $4085
      generated: $4131 8D 0C 41 STA $410C
      orig operand: pix $4085
      source   : Statement assignment samples/toolkit/original/extracted/GEM.DEM:281:4 | pix = locate1(a+ad,b+bd) | source 4249..4273 code $4116-$4133
    ahead+$002E #0023
      original : $40AD AD 85 40 LDA $4085 ; pix $4085
      generated: $4134 AD 0C 41 LDA $410C
      orig operand: pix $4085
      source   : Statement if samples/toolkit/original/extracted/GEM.DEM:283:4 | IF pix=bl OR (pix>=ex AND pix<=ex+4) | source 4281..4617 code $4134-$4214
    ahead+$0034 #0025
      original : $40B3 F0 1D    BEQ $40D2
      generated: $413A F0 23    BEQ $415F
      source   : Statement if samples/toolkit/original/extracted/GEM.DEM:283:4 | IF pix=bl OR (pix>=ex AND pix<=ex+4) | source 4281..4617 code $4134-$4214
    ahead+$0036 #0026
      original : $40B5 AD 85 40 LDA $4085 ; pix $4085
      generated: $413C AD 0C 41 LDA $410C
      orig operand: pix $4085
      source   : Statement if samples/toolkit/original/extracted/GEM.DEM:283:4 | IF pix=bl OR (pix>=ex AND pix<=ex+4) | source 4281..4617 code $4134-$4214
    ahead+$003E #0029
      original : $40BD 4C DA 40 JMP $40DA
      generated: $4144 4C 67 41 JMP $4167
      source   : Statement if samples/toolkit/original/extracted/GEM.DEM:283:4 | IF pix=bl OR (pix>=ex AND pix<=ex+4) | source 4281..4617 code $4134-$4214
    ahead+$0041 #0030
      original : $40C0 18       CLC
      generated: $4147 AD 0C 41 LDA $410C
      source   : Statement if samples/toolkit/original/extracted/GEM.DEM:283:4 | IF pix=bl OR (pix>=ex AND pix<=ex+4) | source 4281..4617 code $4134-$4214
    ahead+$0042 #0031
      original : $40C1 AD 04 30 LDA $3004 ; ex $3004
      generated: $414A 85 AC    STA $AC
      orig operand: ex $3004
      source   : Statement if samples/toolkit/original/extracted/GEM.DEM:283:4 | IF pix=bl OR (pix>=ex AND pix<=ex+4) | source 4281..4617 code $4134-$4214
    ahead+$0045 #0032
      original : $40C4 69 04    ADC #$04
      generated: $414C 18       CLC
      source   : Statement if samples/toolkit/original/extracted/GEM.DEM:283:4 | IF pix=bl OR (pix>=ex AND pix<=ex+4) | source 4281..4617 code $4134-$4214
    ahead+$0047 #0033
      original : $40C6 85 AE    STA $AE
      generated: $414D AD 04 30 LDA $3004
      source   : Statement if samples/toolkit/original/extracted/GEM.DEM:283:4 | IF pix=bl OR (pix>=ex AND pix<=ex+4) | source 4281..4617 code $4134-$4214
    ahead+$0049 #0034
      original : $40C8 A5 AE    LDA $AE
      generated: $4150 69 04    ADC #$04
      source   : Statement if samples/toolkit/original/extracted/GEM.DEM:283:4 | IF pix=bl OR (pix>=ex AND pix<=ex+4) | source 4281..4617 code $4134-$4214
    ahead+$004B #0035
      original : $40CA CD 85 40 CMP $4085 ; pix $4085
      generated: $4152 85 C0    STA $C0
      orig operand: pix $4085
      source   : Statement if samples/toolkit/original/extracted/GEM.DEM:283:4 | IF pix=bl OR (pix>=ex AND pix<=ex+4) | source 4281..4617 code $4134-$4214
    ahead+$004E #0036
      original : $40CD B0 03    BCS $40D2
      generated: $4154 A5 AC    LDA $AC
      source   : Statement if samples/toolkit/original/extracted/GEM.DEM:283:4 | IF pix=bl OR (pix>=ex AND pix<=ex+4) | source 4281..4617 code $4134-$4214
    ahead+$0050 #0037
      original : $40CF 4C DA 40 JMP $40DA
      generated: $4156 C5 C0    CMP $C0
      source   : Statement if samples/toolkit/original/extracted/GEM.DEM:283:4 | IF pix=bl OR (pix>=ex AND pix<=ex+4) | source 4281..4617 code $4134-$4214
    ahead+$0053 #0038
      original : $40D2 A9 00    LDA #$00
      generated: $4158 90 05    BCC $415F
      source   : Statement if samples/toolkit/original/extracted/GEM.DEM:283:4 | IF pix=bl OR (pix>=ex AND pix<=ex+4) | source 4281..4617 code $4134-$4214
    ahead+$0055 #0039
      original : $40D4 85 A0    STA $A0
      generated: $415A F0 03    BEQ $415F
      source   : Statement if samples/toolkit/original/extracted/GEM.DEM:283:4 | IF pix=bl OR (pix>=ex AND pix<=ex+4) | source 4281..4617 code $4134-$4214
    ahead+$0057 #0040
      original : $40D6 60       RTS
      generated: $415C 4C 67 41 JMP $4167
      source   : Statement if samples/toolkit/original/extracted/GEM.DEM:283:4 | IF pix=bl OR (pix>=ex AND pix<=ex+4) | source 4281..4617 code $4134-$4214
    ahead+$0058 #0041
      original : $40D7 4C 70 41 JMP $4170
      generated: $415F A9 00    LDA #$00
      source   : Statement return samples/toolkit/original/extracted/GEM.DEM:284:16 | THEN RETURN(0)  ;blank | source 4333..4334 code $415F-$4163
  getdir                   len 193 -> 275 (+82)  addr $419D -> $4242
    getdir+$0022 #0023
      original : $41BF 4C C2 41 JMP $41C2
      generated: $4264 4C 67 42 JMP $4267
      orig owner: getdir $41BF
      source   : Routine getdir samples/toolkit/original/extracted/GEM.DEM:301:1 | PROC getdir(BYTE r) | source 4683..4930 code $4242-$4354
    getdir+$0025 #0024
      original : $41C2 8D 9D 41 STA $419D ; r $419D
      generated: $4267 8D 42 42 STA $4242
      orig operand: r $419D
      source   : Routine getdir samples/toolkit/original/extracted/GEM.DEM:301:1 | PROC getdir(BYTE r) | source 4683..4930 code $4242-$4354
    getdir+$0028 #0025
      original : $41C5 AD 9D 41 LDA $419D ; r $419D
      generated: $426A AD 42 42 LDA $4242
      orig operand: r $419D
      source   : Statement assignment samples/toolkit/original/extracted/GEM.DEM:309:4 | stk = Stick(r) | source 4844..4858 code $426A-$4274
    getdir+$0030 #0028
      original : $41CD 8D BE 41 STA $41BE ; stk $41BE
      generated: $4272 8D 63 42 STA $4263
      orig operand: stk $41BE
      source   : Statement assignment samples/toolkit/original/extracted/GEM.DEM:309:4 | stk = Stick(r) | source 4844..4858 code $426A-$4274
    getdir+$0033 #0029
      original : $41D0 AD 9D 41 LDA $419D ; r $419D
      generated: $4275 AD 42 42 LDA $4242
      orig operand: r $419D
      source   : Statement assignment samples/toolkit/original/extracted/GEM.DEM:311:4 | xd(r) = sdir(stk*2) + -1 | source 4866..4890 code $4275-$42DF
    getdir+$0047 #0040
      original : $41E4 A9 00    LDA #$00
      generated: $4289 A5 AF    LDA $AF
      source   : Statement assignment samples/toolkit/original/extracted/GEM.DEM:311:4 | xd(r) = sdir(stk*2) + -1 | source 4866..4890 code $4275-$42DF
    getdir+$0049 #0041
      original : $41E6 85 85    STA $85
      generated: $428B 48       PHA
      source   : Statement assignment samples/toolkit/original/extracted/GEM.DEM:311:4 | xd(r) = sdir(stk*2) + -1 | source 4866..4890 code $4275-$42DF
    getdir+$004B #0042
      original : $41E8 A9 02    LDA #$02
      generated: $428C A5 AE    LDA $AE
      source   : Statement assignment samples/toolkit/original/extracted/GEM.DEM:311:4 | xd(r) = sdir(stk*2) + -1 | source 4866..4890 code $4275-$42DF
    getdir+$004D #0043
      original : $41EA 85 84    STA $84
      generated: $428E 48       PHA
      source   : Statement assignment samples/toolkit/original/extracted/GEM.DEM:311:4 | xd(r) = sdir(stk*2) + -1 | source 4866..4890 code $4275-$42DF
    getdir+$004F #0044
      original : $41EC AD BE 41 LDA $41BE ; stk $41BE
      generated: $428F A9 00    LDA #$00
      orig operand: stk $41BE
      source   : Statement assignment samples/toolkit/original/extracted/GEM.DEM:311:4 | xd(r) = sdir(stk*2) + -1 | source 4866..4890 code $4275-$42DF
    getdir+$0052 #0045
      original : $41EF A2 00    LDX #$00
      generated: $4291 85 85    STA $85
      source   : Statement assignment samples/toolkit/original/extracted/GEM.DEM:311:4 | xd(r) = sdir(stk*2) + -1 | source 4866..4890 code $4275-$42DF
    getdir+$0054 #0046
      original : $41F1 20 00 A0 JSR $A000
      generated: $4293 A9 02    LDA #$02
      source   : Statement assignment samples/toolkit/original/extracted/GEM.DEM:311:4 | xd(r) = sdir(stk*2) + -1 | source 4866..4890 code $4275-$42DF
    getdir+$0057 #0047
      original : $41F4 85 AC    STA $AC
      generated: $4295 85 84    STA $84
      source   : Statement assignment samples/toolkit/original/extracted/GEM.DEM:311:4 | xd(r) = sdir(stk*2) + -1 | source 4866..4890 code $4275-$42DF
    getdir+$0059 #0048
      original : $41F6 8A       TXA
      generated: $4297 AD 63 42 LDA $4263
      source   : Statement assignment samples/toolkit/original/extracted/GEM.DEM:311:4 | xd(r) = sdir(stk*2) + -1 | source 4866..4890 code $4275-$42DF
    getdir+$005A #0049
      original : $41F7 85 AD    STA $AD
      generated: $429A A2 00    LDX #$00
      source   : Statement assignment samples/toolkit/original/extracted/GEM.DEM:311:4 | xd(r) = sdir(stk*2) + -1 | source 4866..4890 code $4275-$42DF
    getdir+$005C #0050
      original : $41F9 18       CLC
      generated: $429C 20 00 A0 JSR $A000
      source   : Statement assignment samples/toolkit/original/extracted/GEM.DEM:311:4 | xd(r) = sdir(stk*2) + -1 | source 4866..4890 code $4275-$42DF
    getdir+$005D #0051
      original : $41FA A6 AC    LDX $AC
      generated: $429F 85 C0    STA $C0
      source   : Statement assignment samples/toolkit/original/extracted/GEM.DEM:311:4 | xd(r) = sdir(stk*2) + -1 | source 4866..4890 code $4275-$42DF
    getdir+$005F #0052
      original : $41FC BD 9E 41 LDA $419E,X ; sdir $419E
      generated: $42A1 8A       TXA
      orig operand: sdir $419E
      source   : Statement assignment samples/toolkit/original/extracted/GEM.DEM:311:4 | xd(r) = sdir(stk*2) + -1 | source 4866..4890 code $4275-$42DF
    getdir+$0062 #0053
      original : $41FF 69 FF    ADC #$FF
      generated: $42A2 85 C1    STA $C1
      source   : Statement assignment samples/toolkit/original/extracted/GEM.DEM:311:4 | xd(r) = sdir(stk*2) + -1 | source 4866..4890 code $4275-$42DF
    getdir+$0064 #0054
      original : $4201 85 AA    STA $AA
      generated: $42A4 A9 43    LDA #$43
      source   : Statement assignment samples/toolkit/original/extracted/GEM.DEM:311:4 | xd(r) = sdir(stk*2) + -1 | source 4866..4890 code $4275-$42DF
    getdir+$0066 #0055
      original : $4203 A9 00    LDA #$00
      generated: $42A6 85 AE    STA $AE
      source   : Statement assignment samples/toolkit/original/extracted/GEM.DEM:311:4 | xd(r) = sdir(stk*2) + -1 | source 4866..4890 code $4275-$42DF
    getdir+$0068 #0056
      original : $4205 69 FF    ADC #$FF
      generated: $42A8 A9 42    LDA #$42
      source   : Statement assignment samples/toolkit/original/extracted/GEM.DEM:311:4 | xd(r) = sdir(stk*2) + -1 | source 4866..4890 code $4275-$42DF
    getdir+$006A #0057
      original : $4207 A0 01    LDY #$01
      generated: $42AA 85 AF    STA $AF
      source   : Statement assignment samples/toolkit/original/extracted/GEM.DEM:311:4 | xd(r) = sdir(stk*2) + -1 | source 4866..4890 code $4275-$42DF
    getdir+$006C #0058
      original : $4209 91 AE    STA ($AE),Y
      generated: $42AC A5 C0    LDA $C0
      source   : Statement assignment samples/toolkit/original/extracted/GEM.DEM:311:4 | xd(r) = sdir(stk*2) + -1 | source 4866..4890 code $4275-$42DF
  explode                  len 154 -> 163 (+9)  addr $425E -> $4355
    explode+$0003 #0003
      original : $4261 4C 64 42 JMP $4264
      generated: $4358 4C 5B 43 JMP $435B
      orig owner: explode $4261
      source   : Routine explode samples/toolkit/original/extracted/GEM.DEM:316:1 | PROC explode(BYTE r) | source 4932..5159 code $4355-$43F7
    explode+$0006 #0004
      original : $4264 8D 5E 42 STA $425E ; r $425E
      generated: $435B 8D 55 43 STA $4355
      orig operand: r $425E
      source   : Routine explode samples/toolkit/original/extracted/GEM.DEM:316:1 | PROC explode(BYTE r) | source 4932..5159 code $4355-$43F7
    explode+$000B #0006
      original : $4269 AE 5E 42 LDX $425E ; r $425E
      generated: $4360 AE 55 43 LDX $4355
      orig operand: r $425E
      source   : Statement if samples/toolkit/original/extracted/GEM.DEM:319:6 | IF expl(r)>1 | source 4973..5126 code $435E-$43F0
    explode+$000E #0007
      original : $426C DD 20 31 CMP $3120,X ; expl $3120
      generated: $4363 BD 20 31 LDA $3120,X
      orig operand: expl $3120
      source   : Statement if samples/toolkit/original/extracted/GEM.DEM:319:6 | IF expl(r)>1 | source 4973..5126 code $435E-$43F0
    explode+$0011 #0008
      original : $426F 90 03    BCC $4274
      generated: $4366 C9 00    CMP #$00
      source   : Statement if samples/toolkit/original/extracted/GEM.DEM:319:6 | IF expl(r)>1 | source 4973..5126 code $435E-$43F0
    explode+$0013 #0009
      original : $4271 4C C1 42 JMP $42C1
      generated: $4368 90 03    BCC $436D
      source   : Statement if samples/toolkit/original/extracted/GEM.DEM:319:6 | IF expl(r)>1 | source 4973..5126 code $435E-$43F0
    explode+$0016 #0010
      original : $4274 AE 5E 42 LDX $425E ; r $425E
      generated: $436A 4C CA 43 JMP $43CA
      orig operand: r $425E
      source   : Statement if samples/toolkit/original/extracted/GEM.DEM:319:6 | IF expl(r)>1 | source 4973..5126 code $435E-$43F0
    explode+$0019 #0011
      original : $4277 BD 25 34 LDA $3425,X ; x $3425
      generated: $436D AE 55 43 LDX $4355
      orig operand: x $3425
      source   : Statement call samples/toolkit/original/extracted/GEM.DEM:320:11 | THEN plot1(x(r),y(r),(5-expl(r))+ex) | source 4997..5028 code $436D-$43A4
    explode+$001C #0012
      original : $427A 85 A0    STA $A0
      generated: $4370 BD 25 34 LDA $3425,X
      source   : Statement call samples/toolkit/original/extracted/GEM.DEM:320:11 | THEN plot1(x(r),y(r),(5-expl(r))+ex) | source 4997..5028 code $436D-$43A4
    explode+$001E #0013
      original : $427C AE 5E 42 LDX $425E ; r $425E
      generated: $4373 85 A0    STA $A0
      orig operand: r $425E
      source   : Statement call samples/toolkit/original/extracted/GEM.DEM:320:11 | THEN plot1(x(r),y(r),(5-expl(r))+ex) | source 4997..5028 code $436D-$43A4
    explode+$0021 #0014
      original : $427F BD 24 35 LDA $3524,X ; y $3524
      generated: $4375 AE 55 43 LDX $4355
      orig operand: y $3524
      source   : Statement call samples/toolkit/original/extracted/GEM.DEM:320:11 | THEN plot1(x(r),y(r),(5-expl(r))+ex) | source 4997..5028 code $436D-$43A4
    explode+$0024 #0015
      original : $4282 85 A1    STA $A1
      generated: $4378 BD 24 35 LDA $3524,X
      source   : Statement call samples/toolkit/original/extracted/GEM.DEM:320:11 | THEN plot1(x(r),y(r),(5-expl(r))+ex) | source 4997..5028 code $436D-$43A4
    explode+$0026 #0016
      original : $4284 38       SEC
      generated: $437B 85 A1    STA $A1
      source   : Statement call samples/toolkit/original/extracted/GEM.DEM:320:11 | THEN plot1(x(r),y(r),(5-expl(r))+ex) | source 4997..5028 code $436D-$43A4
    explode+$0027 #0017
      original : $4285 A9 05    LDA #$05
      generated: $437D 18       CLC
      source   : Statement call samples/toolkit/original/extracted/GEM.DEM:320:11 | THEN plot1(x(r),y(r),(5-expl(r))+ex) | source 4997..5028 code $436D-$43A4
    explode+$0029 #0018
      original : $4287 AE 5E 42 LDX $425E ; r $425E
      generated: $437E A9 20    LDA #$20
      orig operand: r $425E
      source   : Statement call samples/toolkit/original/extracted/GEM.DEM:320:11 | THEN plot1(x(r),y(r),(5-expl(r))+ex) | source 4997..5028 code $436D-$43A4
    explode+$002C #0019
      original : $428A FD 20 31 SBC $3120,X ; expl $3120
      generated: $4380 6D 55 43 ADC $4355
      orig operand: expl $3120
      source   : Statement call samples/toolkit/original/extracted/GEM.DEM:320:11 | THEN plot1(x(r),y(r),(5-expl(r))+ex) | source 4997..5028 code $436D-$43A4
    explode+$0031 #0021
      original : $428F 18       CLC
      generated: $4385 A9 31    LDA #$31
      source   : Statement call samples/toolkit/original/extracted/GEM.DEM:320:11 | THEN plot1(x(r),y(r),(5-expl(r))+ex) | source 4997..5028 code $436D-$43A4
    explode+$0032 #0022
      original : $4290 A5 AE    LDA $AE
      generated: $4387 69 00    ADC #$00
      source   : Statement call samples/toolkit/original/extracted/GEM.DEM:320:11 | THEN plot1(x(r),y(r),(5-expl(r))+ex) | source 4997..5028 code $436D-$43A4
    explode+$0034 #0023
      original : $4292 6D 04 30 ADC $3004 ; ex $3004
      generated: $4389 85 AF    STA $AF
      orig operand: ex $3004
      source   : Statement call samples/toolkit/original/extracted/GEM.DEM:320:11 | THEN plot1(x(r),y(r),(5-expl(r))+ex) | source 4997..5028 code $436D-$43A4
    explode+$0037 #0024
      original : $4295 85 A2    STA $A2
      generated: $438B 38       SEC
      source   : Statement call samples/toolkit/original/extracted/GEM.DEM:320:11 | THEN plot1(x(r),y(r),(5-expl(r))+ex) | source 4997..5028 code $436D-$43A4
    explode+$0039 #0025
      original : $4297 A4 A2    LDY $A2
      generated: $438C A9 05    LDA #$05
      source   : Statement call samples/toolkit/original/extracted/GEM.DEM:320:11 | THEN plot1(x(r),y(r),(5-expl(r))+ex) | source 4997..5028 code $436D-$43A4
    explode+$003B #0026
      original : $4299 A6 A1    LDX $A1
      generated: $438E A0 00    LDY #$00
      source   : Statement call samples/toolkit/original/extracted/GEM.DEM:320:11 | THEN plot1(x(r),y(r),(5-expl(r))+ex) | source 4997..5028 code $436D-$43A4
    explode+$003D #0027
      original : $429B A5 A0    LDA $A0
      generated: $4390 F1 AE    SBC ($AE),Y
      source   : Statement call samples/toolkit/original/extracted/GEM.DEM:320:11 | THEN plot1(x(r),y(r),(5-expl(r))+ex) | source 4997..5028 code $436D-$43A4
    explode+$003F #0028
      original : $429D 20 6E 3B JSR $3B6E ; plot1 $3B6E
      generated: $4392 85 AC    STA $AC
      orig operand: plot1 $3B6E
      source   : Statement call samples/toolkit/original/extracted/GEM.DEM:320:11 | THEN plot1(x(r),y(r),(5-expl(r))+ex) | source 4997..5028 code $436D-$43A4
  cease_fire               len 88 -> 95 (+7)  addr $42F8 -> $43F8
    cease_fire+$0001 #0001
      original : $42F9 4C FC 42 JMP $42FC
      generated: $43F9 4C FC 43 JMP $43FC
      orig owner: cease_fire $42F9
      source   : Routine cease_fire samples/toolkit/original/extracted/GEM.DEM:330:1 | PROC cease_fire(BYTE r) | source 5161..5291 code $43F8-$4456
    cease_fire+$0004 #0002
      original : $42FC 8D F8 42 STA $42F8 ; r $42F8
      generated: $43FC 8D F8 43 STA $43F8
      orig operand: r $42F8
      source   : Routine cease_fire samples/toolkit/original/extracted/GEM.DEM:330:1 | PROC cease_fire(BYTE r) | source 5161..5291 code $43F8-$4456
    cease_fire+$0007 #0003
      original : $42FF AE F8 42 LDX $42F8 ; r $42F8
      generated: $43FF AE F8 43 LDX $43F8
      orig operand: r $42F8
      source   : Statement if samples/toolkit/original/extracted/GEM.DEM:332:4 | IF locate1(bx(r),by(r))=ms | source 5189..5251 code $43FF-$4440
    cease_fire+$000F #0006
      original : $4307 AE F8 42 LDX $42F8 ; r $42F8
      generated: $4407 AE F8 43 LDX $43F8
      orig operand: r $42F8
      source   : Statement if samples/toolkit/original/extracted/GEM.DEM:332:4 | IF locate1(bx(r),by(r))=ms | source 5189..5251 code $43FF-$4440
    cease_fire+$001B #0011
      original : $4313 20 B3 3B JSR $3BB3 ; locate1 $3BB3
      generated: $4413 20 A6 3B JSR $3BA6
      orig operand: locate1 $3BB3
      source   : Statement if samples/toolkit/original/extracted/GEM.DEM:332:4 | IF locate1(bx(r),by(r))=ms | source 5189..5251 code $43FF-$4440
    cease_fire+$0020 #0013
      original : $4318 4D 02 30 EOR $3002 ; ms $3002
      generated: $4418 85 AC    STA $AC
      orig operand: ms $3002
      source   : Statement if samples/toolkit/original/extracted/GEM.DEM:332:4 | IF locate1(bx(r),by(r))=ms | source 5189..5251 code $43FF-$4440
    cease_fire+$0023 #0014
      original : $431B F0 03    BEQ $4320
      generated: $441A A5 AC    LDA $AC
      source   : Statement if samples/toolkit/original/extracted/GEM.DEM:332:4 | IF locate1(bx(r),by(r))=ms | source 5189..5251 code $43FF-$4440
    cease_fire+$0025 #0015
      original : $431D 4C 3A 43 JMP $433A
      generated: $441C CD 02 30 CMP $3002
      source   : Statement if samples/toolkit/original/extracted/GEM.DEM:332:4 | IF locate1(bx(r),by(r))=ms | source 5189..5251 code $43FF-$4440
    cease_fire+$0028 #0016
      original : $4320 AE F8 42 LDX $42F8 ; r $42F8
      generated: $441F D0 03    BNE $4424
      orig operand: r $42F8
      source   : Statement if samples/toolkit/original/extracted/GEM.DEM:332:4 | IF locate1(bx(r),by(r))=ms | source 5189..5251 code $43FF-$4440
    cease_fire+$002B #0017
      original : $4323 BD 23 36 LDA $3623,X ; bx $3623
      generated: $4421 4C 27 44 JMP $4427
      orig operand: bx $3623
      source   : Statement if samples/toolkit/original/extracted/GEM.DEM:332:4 | IF locate1(bx(r),by(r))=ms | source 5189..5251 code $43FF-$4440
    cease_fire+$002E #0018
      original : $4326 85 A0    STA $A0
      generated: $4424 4C 41 44 JMP $4441
      source   : Statement if samples/toolkit/original/extracted/GEM.DEM:332:4 | IF locate1(bx(r),by(r))=ms | source 5189..5251 code $43FF-$4440
    cease_fire+$0030 #0019
      original : $4328 AE F8 42 LDX $42F8 ; r $42F8
      generated: $4427 AE F8 43 LDX $43F8
      orig operand: r $42F8
      source   : Statement call samples/toolkit/original/extracted/GEM.DEM:333:9 | THEN plot1(bx(r),by(r),bl) | source 5224..5245 code $4427-$4440
    cease_fire+$0033 #0020
      original : $432B BD 22 37 LDA $3722,X ; by $3722
      generated: $442A BD 23 36 LDA $3623,X
      orig operand: by $3722
      source   : Statement call samples/toolkit/original/extracted/GEM.DEM:333:9 | THEN plot1(bx(r),by(r),bl) | source 5224..5245 code $4427-$4440
    cease_fire+$0036 #0021
      original : $432E 85 A1    STA $A1
      generated: $442D 85 A0    STA $A0
      source   : Statement call samples/toolkit/original/extracted/GEM.DEM:333:9 | THEN plot1(bx(r),by(r),bl) | source 5224..5245 code $4427-$4440
    cease_fire+$0038 #0022
      original : $4330 AC 01 30 LDY $3001 ; bl $3001
      generated: $442F AE F8 43 LDX $43F8
      orig operand: bl $3001
      source   : Statement call samples/toolkit/original/extracted/GEM.DEM:333:9 | THEN plot1(bx(r),by(r),bl) | source 5224..5245 code $4427-$4440
    cease_fire+$003B #0023
      original : $4333 A6 A1    LDX $A1
      generated: $4432 BD 22 37 LDA $3722,X
      source   : Statement call samples/toolkit/original/extracted/GEM.DEM:333:9 | THEN plot1(bx(r),by(r),bl) | source 5224..5245 code $4427-$4440
    cease_fire+$003D #0024
      original : $4335 A5 A0    LDA $A0
      generated: $4435 85 A1    STA $A1
      source   : Statement call samples/toolkit/original/extracted/GEM.DEM:333:9 | THEN plot1(bx(r),by(r),bl) | source 5224..5245 code $4427-$4440
    cease_fire+$003F #0025
      original : $4337 20 6E 3B JSR $3B6E ; plot1 $3B6E
      generated: $4437 AC 01 30 LDY $3001
      orig operand: plot1 $3B6E
      source   : Statement call samples/toolkit/original/extracted/GEM.DEM:333:9 | THEN plot1(bx(r),by(r),bl) | source 5224..5245 code $4427-$4440
    cease_fire+$0042 #0026
      original : $433A A9 00    LDA #$00
      generated: $443A A6 A1    LDX $A1
      source   : Statement call samples/toolkit/original/extracted/GEM.DEM:333:9 | THEN plot1(bx(r),by(r),bl) | source 5224..5245 code $4427-$4440
    cease_fire+$0044 #0027
      original : $433C AE F8 42 LDX $42F8 ; r $42F8
      generated: $443C A5 A0    LDA $A0
      orig operand: r $42F8
      source   : Statement call samples/toolkit/original/extracted/GEM.DEM:333:9 | THEN plot1(bx(r),by(r),bl) | source 5224..5245 code $4427-$4440
    cease_fire+$0047 #0028
      original : $433F 9D 1F 32 STA $321F,X ; fire $321F
      generated: $443E 20 61 3B JSR $3B61
      orig operand: fire $321F
      source   : Statement call samples/toolkit/original/extracted/GEM.DEM:333:9 | THEN plot1(bx(r),by(r),bl) | source 5224..5245 code $4427-$4440
    cease_fire+$004A #0029
      original : $4342 A9 00    LDA #$00
      generated: $4441 AE F8 43 LDX $43F8
      source   : Statement assignment samples/toolkit/original/extracted/GEM.DEM:336:4 | fire(r)=0 | source 5256..5265 code $4441-$4448
    cease_fire+$004C #0030
      original : $4344 85 A3    STA $A3
      generated: $4444 A9 00    LDA #$00
      source   : Statement assignment samples/toolkit/original/extracted/GEM.DEM:336:4 | fire(r)=0 | source 5256..5265 code $4441-$4448
    cease_fire+$004E #0031
      original : $4346 A0 00    LDY #$00
      generated: $4446 9D 1F 32 STA $321F,X
      source   : Statement assignment samples/toolkit/original/extracted/GEM.DEM:336:4 | fire(r)=0 | source 5256..5265 code $4441-$4448
  kill                     len 96 -> 96 (+0)  addr $4350 -> $4457
    kill+$0001 #0001
      original : $4351 4C 54 43 JMP $4354
      generated: $4458 4C 5B 44 JMP $445B
      orig owner: kill $4351
      source   : Routine kill samples/toolkit/original/extracted/GEM.DEM:341:1 | PROC kill(BYTE r) | source 5296..5549 code $4457-$44B6
    kill+$0004 #0002
      original : $4354 8D 50 43 STA $4350 ; r $4350
      generated: $445B 8D 57 44 STA $4457
      orig operand: r $4350
      source   : Routine kill samples/toolkit/original/extracted/GEM.DEM:341:1 | PROC kill(BYTE r) | source 5296..5549 code $4457-$44B6
    kill+$0007 #0003
      original : $4357 A9 00    LDA #$00
      generated: $445E AE 57 44 LDX $4457
      source   : Statement assignment samples/toolkit/original/extracted/GEM.DEM:343:4 | alive(r) = 0 ; DEAD | source 5319..5331 code $445E-$4465
    kill+$0009 #0004
      original : $4359 AE 50 43 LDX $4350 ; r $4350
      generated: $4461 A9 00    LDA #$00
      orig operand: r $4350
      source   : Statement assignment samples/toolkit/original/extracted/GEM.DEM:343:4 | alive(r) = 0 ; DEAD | source 5319..5331 code $445E-$4465
    kill+$000F #0006
      original : $435F A9 05    LDA #$05
      generated: $4466 AE 57 44 LDX $4457
      source   : Statement assignment samples/toolkit/original/extracted/GEM.DEM:344:4 | expl(r) = 5 | source 5342..5353 code $4466-$446D
    kill+$0011 #0007
      original : $4361 AE 50 43 LDX $4350 ; r $4350
      generated: $4469 A9 05    LDA #$05
      orig operand: r $4350
      source   : Statement assignment samples/toolkit/original/extracted/GEM.DEM:344:4 | expl(r) = 5 | source 5342..5353 code $4466-$446D
    kill+$0017 #0009
      original : $4367 AD 50 43 LDA $4350 ; r $4350
      generated: $446E AD 57 44 LDA $4457
      orig operand: r $4350
      source   : Statement call samples/toolkit/original/extracted/GEM.DEM:345:4 | explode(r) | source 5357..5367 code $446E-$4473
    kill+$001A #0010
      original : $436A 20 61 42 JSR $4261 ; explode $4261
      generated: $4471 20 58 43 JSR $4358
      orig operand: explode $4261
      source   : Statement call samples/toolkit/original/extracted/GEM.DEM:345:4 | explode(r) | source 5357..5367 code $446E-$4473
    kill+$001D #0011
      original : $436D AD 50 43 LDA $4350 ; r $4350
      generated: $4474 AD 57 44 LDA $4457
      orig operand: r $4350
      source   : Statement call samples/toolkit/original/extracted/GEM.DEM:346:4 | cease_fire(r) | source 5371..5384 code $4474-$4479
    kill+$0020 #0012
      original : $4370 20 F9 42 JSR $42F9 ; cease_fire $42F9
      generated: $4477 20 F9 43 JSR $43F9
      orig operand: cease_fire $42F9
      source   : Statement call samples/toolkit/original/extracted/GEM.DEM:346:4 | cease_fire(r) | source 5371..5384 code $4474-$4479
    kill+$0023 #0013
      original : $4373 AD 50 43 LDA $4350 ; r $4350
      generated: $447A AD 57 44 LDA $4457
      orig operand: r $4350
      source   : Statement if samples/toolkit/original/extracted/GEM.DEM:348:4 | IF r<4 | source 5389..5541 code $447A-$44B5
    kill+$002A #0016
      original : $437A 4C AF 43 JMP $43AF
      generated: $4481 4C B6 44 JMP $44B6
      source   : Statement if samples/toolkit/original/extracted/GEM.DEM:348:4 | IF r<4 | source 5389..5541 code $447A-$44B5
    kill+$002D #0017
      original : $437D AE 50 43 LDX $4350 ; r $4350
      generated: $4484 AE 57 44 LDX $4457
      orig operand: r $4350
      source   : Statement if samples/toolkit/original/extracted/GEM.DEM:349:9 | THEN IF havegem(r)=1 | source 5404..5535 code $4484-$44B5
    kill+$0037 #0021
      original : $4387 4C AF 43 JMP $43AF
      generated: $448E 4C B6 44 JMP $44B6
      source   : Statement if samples/toolkit/original/extracted/GEM.DEM:349:9 | THEN IF havegem(r)=1 | source 5404..5535 code $4484-$44B5
    kill+$003A #0022
      original : $438A 20 A4 3D JSR $3DA4 ; plotgem $3DA4
      generated: $4491 20 D4 3D JSR $3DD4
      orig operand: plotgem $3DA4
      source   : Statement call samples/toolkit/original/extracted/GEM.DEM:350:14 | THEN plotgem() | source 5433..5442 code $4491-$4493
    kill+$003D #0023
      original : $438D A9 00    LDA #$00
      generated: $4494 AE 57 44 LDX $4457
      source   : Statement assignment samples/toolkit/original/extracted/GEM.DEM:351:14 | havegem(r)=0 | source 5456..5468 code $4494-$449B
    kill+$003F #0024
      original : $438F AE 50 43 LDX $4350 ; r $4350
      generated: $4497 A9 00    LDA #$00
      orig operand: r $4350
      source   : Statement assignment samples/toolkit/original/extracted/GEM.DEM:351:14 | havegem(r)=0 | source 5456..5468 code $4494-$449B
  findr                    len 152 -> 155 (+3)  addr $43B0 -> $44B7
    findr+$0003 #0003
      original : $43B3 4C B6 43 JMP $43B6
      generated: $44BA 4C BD 44 JMP $44BD
      orig owner: findr $43B3
      source   : Routine findr samples/toolkit/original/extracted/GEM.DEM:359:1 | BYTE FUNC findr(BYTE a,b)  ;find robot | source 5551..5778 code $44B7-$4551
    findr+$0006 #0004
      original : $43B6 8E B1 43 STX $43B1 ; b $43B1
      generated: $44BD 8E B8 44 STX $44B8
      orig operand: b $43B1
      source   : Routine findr samples/toolkit/original/extracted/GEM.DEM:359:1 | BYTE FUNC findr(BYTE a,b)  ;find robot | source 5551..5778 code $44B7-$4551
    findr+$0009 #0005
      original : $43B9 8D B0 43 STA $43B0 ; a $43B0
      generated: $44C0 8D B7 44 STA $44B7
      orig operand: a $43B0
      source   : Routine findr samples/toolkit/original/extracted/GEM.DEM:359:1 | BYTE FUNC findr(BYTE a,b)  ;find robot | source 5551..5778 code $44B7-$4551
    findr+$000E #0007
      original : $43BE 8C B2 43 STY $43B2 ; i $43B2
      generated: $44C5 8C B9 44 STY $44B9
      orig operand: i $43B2
      source   : Statement for samples/toolkit/original/extracted/GEM.DEM:362:4 | FOR i = 0 TO numbots-1 | source 5604..5710 code $44C3-$4514
    findr+$0011 #0008
      original : $43C1 38       SEC
      generated: $44C8 AD B9 44 LDA $44B9
      source   : Statement for samples/toolkit/original/extracted/GEM.DEM:362:4 | FOR i = 0 TO numbots-1 | source 5604..5710 code $44C3-$4514
    findr+$0012 #0009
      original : $43C2 AD 08 30 LDA $3008 ; numbots $3008
      generated: $44CB 85 AC    STA $AC
      orig operand: numbots $3008
      source   : Statement for samples/toolkit/original/extracted/GEM.DEM:362:4 | FOR i = 0 TO numbots-1 | source 5604..5710 code $44C3-$4514
    findr+$0015 #0010
      original : $43C5 E9 01    SBC #$01
      generated: $44CD 38       SEC
      source   : Statement for samples/toolkit/original/extracted/GEM.DEM:362:4 | FOR i = 0 TO numbots-1 | source 5604..5710 code $44C3-$4514
    findr+$0017 #0011
      original : $43C7 8D D5 43 STA $43D5
      generated: $44CE AD 08 30 LDA $3008
      source   : Statement for samples/toolkit/original/extracted/GEM.DEM:362:4 | FOR i = 0 TO numbots-1 | source 5604..5710 code $44C3-$4514
    findr+$001A #0012
      original : $43CA AD D5 43 LDA $43D5
      generated: $44D1 E9 01    SBC #$01
      source   : Statement for samples/toolkit/original/extracted/GEM.DEM:362:4 | FOR i = 0 TO numbots-1 | source 5604..5710 code $44C3-$4514
    findr+$001D #0013
      original : $43CD CD B2 43 CMP $43B2 ; i $43B2
      generated: $44D3 85 C0    STA $C0
      orig operand: i $43B2
      source   : Statement for samples/toolkit/original/extracted/GEM.DEM:362:4 | FOR i = 0 TO numbots-1 | source 5604..5710 code $44C3-$4514
    findr+$0020 #0014
      original : $43D0 B0 04    BCS $43D6
      generated: $44D5 A5 AC    LDA $AC
      source   : Statement for samples/toolkit/original/extracted/GEM.DEM:362:4 | FOR i = 0 TO numbots-1 | source 5604..5710 code $44C3-$4514
    findr+$0022 #0015
      original : $43D2 4C 0B 44 JMP $440B
      generated: $44D7 C5 C0    CMP $C0
      source   : Statement for samples/toolkit/original/extracted/GEM.DEM:362:4 | FOR i = 0 TO numbots-1 | source 5604..5710 code $44C3-$4514
    findr+$0025 #0016
      original : $43D5 00       BRK
      generated: $44D9 90 05    BCC $44E0
      source   : Statement for samples/toolkit/original/extracted/GEM.DEM:362:4 | FOR i = 0 TO numbots-1 | source 5604..5710 code $44C3-$4514
    findr+$0026 #0017
      original : $43D6 AE B2 43 LDX $43B2 ; i $43B2
      generated: $44DB F0 03    BEQ $44E0
      orig operand: i $43B2
      source   : Statement for samples/toolkit/original/extracted/GEM.DEM:362:4 | FOR i = 0 TO numbots-1 | source 5604..5710 code $44C3-$4514
    findr+$0029 #0018
      original : $43D9 BD 25 34 LDA $3425,X ; x $3425
      generated: $44DD 4C 15 45 JMP $4515
      orig operand: x $3425
      source   : Statement for samples/toolkit/original/extracted/GEM.DEM:362:4 | FOR i = 0 TO numbots-1 | source 5604..5710 code $44C3-$4514
    findr+$002C #0019
      original : $43DC 4D B0 43 EOR $43B0 ; a $43B0
      generated: $44E0 AE B9 44 LDX $44B9
      orig operand: a $43B0
      source   : Statement if samples/toolkit/original/extracted/GEM.DEM:364:7 | IF x(i)=a AND y(i)=b AND alive(i)=1 | source 5639..5704 code $44E0-$450E
    findr+$002F #0020
      original : $43DF F0 03    BEQ $43E4
      generated: $44E3 BD 25 34 LDA $3425,X
      source   : Statement if samples/toolkit/original/extracted/GEM.DEM:364:7 | IF x(i)=a AND y(i)=b AND alive(i)=1 | source 5639..5704 code $44E0-$450E
    findr+$0031 #0021
      original : $43E1 4C 05 44 JMP $4405
      generated: $44E6 4D B7 44 EOR $44B7
      source   : Statement if samples/toolkit/original/extracted/GEM.DEM:364:7 | IF x(i)=a AND y(i)=b AND alive(i)=1 | source 5639..5704 code $44E0-$450E
    findr+$0034 #0022
      original : $43E4 AE B2 43 LDX $43B2 ; i $43B2
      generated: $44E9 F0 03    BEQ $44EE
      orig operand: i $43B2
      source   : Statement if samples/toolkit/original/extracted/GEM.DEM:364:7 | IF x(i)=a AND y(i)=b AND alive(i)=1 | source 5639..5704 code $44E0-$450E
    findr+$0037 #0023
      original : $43E7 BD 24 35 LDA $3524,X ; y $3524
      generated: $44EB 4C 0F 45 JMP $450F
      orig operand: y $3524
      source   : Statement if samples/toolkit/original/extracted/GEM.DEM:364:7 | IF x(i)=a AND y(i)=b AND alive(i)=1 | source 5639..5704 code $44E0-$450E
    findr+$003A #0024
      original : $43EA 4D B1 43 EOR $43B1 ; b $43B1
      generated: $44EE AE B9 44 LDX $44B9
      orig operand: b $43B1
      source   : Statement if samples/toolkit/original/extracted/GEM.DEM:364:7 | IF x(i)=a AND y(i)=b AND alive(i)=1 | source 5639..5704 code $44E0-$450E
    findr+$003D #0025
      original : $43ED F0 03    BEQ $43F2
      generated: $44F1 BD 24 35 LDA $3524,X
      source   : Statement if samples/toolkit/original/extracted/GEM.DEM:364:7 | IF x(i)=a AND y(i)=b AND alive(i)=1 | source 5639..5704 code $44E0-$450E
    findr+$003F #0026
      original : $43EF 4C 05 44 JMP $4405
      generated: $44F4 4D B8 44 EOR $44B8
      source   : Statement if samples/toolkit/original/extracted/GEM.DEM:364:7 | IF x(i)=a AND y(i)=b AND alive(i)=1 | source 5639..5704 code $44E0-$450E
    findr+$0042 #0027
      original : $43F2 AE B2 43 LDX $43B2 ; i $43B2
      generated: $44F7 F0 03    BEQ $44FC
      orig operand: i $43B2
      source   : Statement if samples/toolkit/original/extracted/GEM.DEM:364:7 | IF x(i)=a AND y(i)=b AND alive(i)=1 | source 5639..5704 code $44E0-$450E
  getgem                   len 26 -> 26 (+0)  addr $4448 -> $4552
    getgem+$0001 #0001
      original : $4449 4C 4C 44 JMP $444C
      generated: $4553 4C 56 45 JMP $4556
      orig owner: getgem $4449
      source   : Routine getgem samples/toolkit/original/extracted/GEM.DEM:373:1 | PROC getgem(BYTE r) | source 5781..5848 code $4552-$456B
    getgem+$0004 #0002
      original : $444C 8D 48 44 STA $4448 ; r $4448
      generated: $4556 8D 52 45 STA $4552
      orig operand: r $4448
      source   : Routine getgem samples/toolkit/original/extracted/GEM.DEM:373:1 | PROC getgem(BYTE r) | source 5781..5848 code $4552-$456B
    getgem+$0007 #0003
      original : $444F A9 01    LDA #$01
      generated: $4559 AE 52 45 LDX $4552
      source   : Statement assignment samples/toolkit/original/extracted/GEM.DEM:375:6 | havegem(r)=1 | source 5807..5819 code $4559-$4560
    getgem+$0009 #0004
      original : $4451 AE 48 44 LDX $4448 ; r $4448
      generated: $455C A9 01    LDA #$01
      orig operand: r $4448
      source   : Statement assignment samples/toolkit/original/extracted/GEM.DEM:375:6 | havegem(r)=1 | source 5807..5819 code $4559-$4560
    getgem+$0016 #0009
      original : $445E 20 6E 3B JSR $3B6E ; plot1 $3B6E
      generated: $4568 20 61 3B JSR $3B61
      orig operand: plot1 $3B6E
      source   : Statement call samples/toolkit/original/extracted/GEM.DEM:377:6 | plot1(9,11,bl) | source 5826..5840 code $4561-$456A
  qwin                     len 51 -> 93 (+42)  addr $4462 -> $456C
    qwin+$0001 #0001
      original : $4463 4C 66 44 JMP $4466
      generated: $456D 4C 70 45 JMP $4570
      orig owner: qwin $4463
      source   : Routine qwin samples/toolkit/original/extracted/GEM.DEM:381:1 | PROC qwin(BYTE r) | source 5850..5945 code $456C-$45C8
    qwin+$0004 #0002
      original : $4466 8D 62 44 STA $4462 ; r $4462
      generated: $4570 8D 6C 45 STA $456C
      orig operand: r $4462
      source   : Routine qwin samples/toolkit/original/extracted/GEM.DEM:381:1 | PROC qwin(BYTE r) | source 5850..5945 code $456C-$45C8
    qwin+$0007 #0003
      original : $4469 AE 62 44 LDX $4462 ; r $4462
      generated: $4573 18       CLC
      orig operand: r $4462
      source   : Statement if samples/toolkit/original/extracted/GEM.DEM:383:6 | IF x(r)=xst(r) AND y(r)=yst(r) | source 5878..5937 code $4573-$45C7
    qwin+$000A #0004
      original : $446C BD 25 34 LDA $3425,X ; x $3425
      generated: $4574 A9 25    LDA #$25
      orig operand: x $3425
      source   : Statement if samples/toolkit/original/extracted/GEM.DEM:383:6 | IF x(r)=xst(r) AND y(r)=yst(r) | source 5878..5937 code $4573-$45C7
    qwin+$000D #0005
      original : $446F AE 62 44 LDX $4462 ; r $4462
      generated: $4576 6D 6C 45 ADC $456C
      orig operand: r $4462
      source   : Statement if samples/toolkit/original/extracted/GEM.DEM:383:6 | IF x(r)=xst(r) AND y(r)=yst(r) | source 5878..5937 code $4573-$45C7
    qwin+$0010 #0006
      original : $4472 5D 25 38 EOR $3825,X ; xst $3825
      generated: $4579 85 AE    STA $AE
      orig operand: xst $3825
      source   : Statement if samples/toolkit/original/extracted/GEM.DEM:383:6 | IF x(r)=xst(r) AND y(r)=yst(r) | source 5878..5937 code $4573-$45C7
    qwin+$0013 #0007
      original : $4475 F0 03    BEQ $447A
      generated: $457B A9 34    LDA #$34
      source   : Statement if samples/toolkit/original/extracted/GEM.DEM:383:6 | IF x(r)=xst(r) AND y(r)=yst(r) | source 5878..5937 code $4573-$45C7
    qwin+$0015 #0008
      original : $4477 4C 94 44 JMP $4494
      generated: $457D 69 00    ADC #$00
      source   : Statement if samples/toolkit/original/extracted/GEM.DEM:383:6 | IF x(r)=xst(r) AND y(r)=yst(r) | source 5878..5937 code $4573-$45C7
    qwin+$0018 #0009
      original : $447A AE 62 44 LDX $4462 ; r $4462
      generated: $457F 85 AF    STA $AF
      orig operand: r $4462
      source   : Statement if samples/toolkit/original/extracted/GEM.DEM:383:6 | IF x(r)=xst(r) AND y(r)=yst(r) | source 5878..5937 code $4573-$45C7
    qwin+$001B #0010
      original : $447D BD 24 35 LDA $3524,X ; y $3524
      generated: $4581 18       CLC
      orig operand: y $3524
      source   : Statement if samples/toolkit/original/extracted/GEM.DEM:383:6 | IF x(r)=xst(r) AND y(r)=yst(r) | source 5878..5937 code $4573-$45C7
    qwin+$001E #0011
      original : $4480 AE 62 44 LDX $4462 ; r $4462
      generated: $4582 A9 25    LDA #$25
      orig operand: r $4462
      source   : Statement if samples/toolkit/original/extracted/GEM.DEM:383:6 | IF x(r)=xst(r) AND y(r)=yst(r) | source 5878..5937 code $4573-$45C7
    qwin+$0021 #0012
      original : $4483 5D 29 38 EOR $3829,X ; yst $3829
      generated: $4584 6D 6C 45 ADC $456C
      orig operand: yst $3829
      source   : Statement if samples/toolkit/original/extracted/GEM.DEM:383:6 | IF x(r)=xst(r) AND y(r)=yst(r) | source 5878..5937 code $4573-$45C7
    qwin+$0024 #0013
      original : $4486 F0 03    BEQ $448B
      generated: $4587 85 AC    STA $AC
      source   : Statement if samples/toolkit/original/extracted/GEM.DEM:383:6 | IF x(r)=xst(r) AND y(r)=yst(r) | source 5878..5937 code $4573-$45C7
    qwin+$0026 #0014
      original : $4488 4C 94 44 JMP $4494
      generated: $4589 A9 38    LDA #$38
      source   : Statement if samples/toolkit/original/extracted/GEM.DEM:383:6 | IF x(r)=xst(r) AND y(r)=yst(r) | source 5878..5937 code $4573-$45C7
    qwin+$0029 #0015
      original : $448B 18       CLC
      generated: $458B 69 00    ADC #$00
      source   : Statement if samples/toolkit/original/extracted/GEM.DEM:383:6 | IF x(r)=xst(r) AND y(r)=yst(r) | source 5878..5937 code $4573-$45C7
    qwin+$002A #0016
      original : $448C AD 62 44 LDA $4462 ; r $4462
      generated: $458D 85 AD    STA $AD
      orig operand: r $4462
      source   : Statement if samples/toolkit/original/extracted/GEM.DEM:383:6 | IF x(r)=xst(r) AND y(r)=yst(r) | source 5878..5937 code $4573-$45C7
    qwin+$002D #0017
      original : $448F 69 01    ADC #$01
      generated: $458F A0 00    LDY #$00
      source   : Statement if samples/toolkit/original/extracted/GEM.DEM:383:6 | IF x(r)=xst(r) AND y(r)=yst(r) | source 5878..5937 code $4573-$45C7
    qwin+$002F #0018
      original : $4491 8D 09 30 STA $3009 ; winner $3009
      generated: $4591 B1 AE    LDA ($AE),Y
      orig operand: winner $3009
      source   : Statement if samples/toolkit/original/extracted/GEM.DEM:383:6 | IF x(r)=xst(r) AND y(r)=yst(r) | source 5878..5937 code $4573-$45C7
    qwin+$0032 #0019
      original : $4494 60       RTS
      generated: $4593 D1 AC    CMP ($AC),Y
      source   : Statement if samples/toolkit/original/extracted/GEM.DEM:383:6 | IF x(r)=xst(r) AND y(r)=yst(r) | source 5878..5937 code $4573-$45C7
    qwin+<missing> #0020
      original : <missing>
      generated: $4595 F0 03    BEQ $459A
      source   : Statement if samples/toolkit/original/extracted/GEM.DEM:383:6 | IF x(r)=xst(r) AND y(r)=yst(r) | source 5878..5937 code $4573-$45C7
    qwin+<missing> #0021
      original : <missing>
      generated: $4597 4C C8 45 JMP $45C8
      source   : Statement if samples/toolkit/original/extracted/GEM.DEM:383:6 | IF x(r)=xst(r) AND y(r)=yst(r) | source 5878..5937 code $4573-$45C7
    qwin+<missing> #0022
      original : <missing>
      generated: $459A 18       CLC
      source   : Statement if samples/toolkit/original/extracted/GEM.DEM:383:6 | IF x(r)=xst(r) AND y(r)=yst(r) | source 5878..5937 code $4573-$45C7
    qwin+<missing> #0023
      original : <missing>
      generated: $459B A9 24    LDA #$24
      source   : Statement if samples/toolkit/original/extracted/GEM.DEM:383:6 | IF x(r)=xst(r) AND y(r)=yst(r) | source 5878..5937 code $4573-$45C7
    qwin+<missing> #0024
      original : <missing>
      generated: $459D 6D 6C 45 ADC $456C
      source   : Statement if samples/toolkit/original/extracted/GEM.DEM:383:6 | IF x(r)=xst(r) AND y(r)=yst(r) | source 5878..5937 code $4573-$45C7
  drawbot                  len 145 -> 152 (+7)  addr $4495 -> $45C9
    drawbot+$0001 #0001
      original : $4496 4C 99 44 JMP $4499
      generated: $45CA 4C CD 45 JMP $45CD
      orig owner: drawbot $4496
      source   : Routine drawbot samples/toolkit/original/extracted/GEM.DEM:389:1 | PROC drawbot(BYTE r) | source 5947..6137 code $45C9-$4660
    drawbot+$0004 #0002
      original : $4499 8D 95 44 STA $4495 ; r $4495
      generated: $45CD 8D C9 45 STA $45C9
      orig operand: r $4495
      source   : Routine drawbot samples/toolkit/original/extracted/GEM.DEM:389:1 | PROC drawbot(BYTE r) | source 5947..6137 code $45C9-$4660
    drawbot+$0009 #0004
      original : $449E CD 95 44 CMP $4495 ; r $4495
      generated: $45D2 CD C9 45 CMP $45C9
      orig operand: r $4495
      source   : Statement if samples/toolkit/original/extracted/GEM.DEM:391:4 | IF r>3 | source 5972..6129 code $45D0-$465F
    drawbot+$000E #0006
      original : $44A3 4C CA 44 JMP $44CA
      generated: $45D7 4C FE 45 JMP $45FE
      source   : Statement if samples/toolkit/original/extracted/GEM.DEM:391:4 | IF r>3 | source 5972..6129 code $45D0-$465F
    drawbot+$0011 #0007
      original : $44A6 AE 95 44 LDX $4495 ; r $4495
      generated: $45DA AE C9 45 LDX $45C9
      orig operand: r $4495
      source   : Statement call samples/toolkit/original/extracted/GEM.DEM:392:9 | THEN plot1(x(r),y(r),image(r)) | source 5987..6012 code $45DA-$45FA
    drawbot+$0019 #0010
      original : $44AE AE 95 44 LDX $4495 ; r $4495
      generated: $45E2 AE C9 45 LDX $45C9
      orig operand: r $4495
      source   : Statement call samples/toolkit/original/extracted/GEM.DEM:392:9 | THEN plot1(x(r),y(r),image(r)) | source 5987..6012 code $45DA-$45FA
    drawbot+$0021 #0013
      original : $44B6 AE 95 44 LDX $4495 ; r $4495
      generated: $45EA AE C9 45 LDX $45C9
      orig operand: r $4495
      source   : Statement call samples/toolkit/original/extracted/GEM.DEM:392:9 | THEN plot1(x(r),y(r),image(r)) | source 5987..6012 code $45DA-$45FA
    drawbot+$002F #0019
      original : $44C4 20 6E 3B JSR $3B6E ; plot1 $3B6E
      generated: $45F8 20 61 3B JSR $3B61
      orig operand: plot1 $3B6E
      source   : Statement call samples/toolkit/original/extracted/GEM.DEM:392:9 | THEN plot1(x(r),y(r),image(r)) | source 5987..6012 code $45DA-$45FA
    drawbot+$0032 #0020
      original : $44C7 4C 25 45 JMP $4525
      generated: $45FB 4C 60 46 JMP $4660
      source   : Statement if samples/toolkit/original/extracted/GEM.DEM:391:4 | IF r>3 | source 5972..6129 code $45D0-$465F
    drawbot+$0035 #0021
      original : $44CA AE 95 44 LDX $4495 ; r $4495
      generated: $45FE AE C9 45 LDX $45C9
      orig operand: r $4495
      source   : Statement if samples/toolkit/original/extracted/GEM.DEM:391:4 | IF r>3 | source 5972..6129 code $45D0-$465F
    drawbot+$003F #0025
      original : $44D4 4C 04 45 JMP $4504
      generated: $4608 4C 3F 46 JMP $463F
      source   : Statement if samples/toolkit/original/extracted/GEM.DEM:391:4 | IF r>3 | source 5972..6129 code $45D0-$465F
    drawbot+$0042 #0026
      original : $44D7 AE 95 44 LDX $4495 ; r $4495
      generated: $460B AE C9 45 LDX $45C9
      orig operand: r $4495
      source   : Statement call samples/toolkit/original/extracted/GEM.DEM:394:9 | THEN plot1(x(r),y(r),image(r)+192) | source 6044..6073 code $460B-$4635
    drawbot+$004A #0029
      original : $44DF AE 95 44 LDX $4495 ; r $4495
      generated: $4613 AE C9 45 LDX $45C9
      orig operand: r $4495
      source   : Statement call samples/toolkit/original/extracted/GEM.DEM:394:9 | THEN plot1(x(r),y(r),image(r)+192) | source 6044..6073 code $460B-$4635
    drawbot+$0052 #0032
      original : $44E7 18       CLC
      generated: $461B AE C9 45 LDX $45C9
      source   : Statement call samples/toolkit/original/extracted/GEM.DEM:394:9 | THEN plot1(x(r),y(r),image(r)+192) | source 6044..6073 code $460B-$4635
    drawbot+$0053 #0033
      original : $44E8 AE 95 44 LDX $4495 ; r $4495
      generated: $461E AE C9 45 LDX $45C9
      orig operand: r $4495
      source   : Statement call samples/toolkit/original/extracted/GEM.DEM:394:9 | THEN plot1(x(r),y(r),image(r)+192) | source 6044..6073 code $460B-$4635
    drawbot+$0059 #0035
      original : $44EE 69 C0    ADC #$C0
      generated: $4624 85 AC    STA $AC
      source   : Statement call samples/toolkit/original/extracted/GEM.DEM:394:9 | THEN plot1(x(r),y(r),image(r)+192) | source 6044..6073 code $460B-$4635
    drawbot+$005B #0036
      original : $44F0 85 A2    STA $A2
      generated: $4626 18       CLC
      source   : Statement call samples/toolkit/original/extracted/GEM.DEM:394:9 | THEN plot1(x(r),y(r),image(r)+192) | source 6044..6073 code $460B-$4635
    drawbot+$005D #0037
      original : $44F2 A4 A2    LDY $A2
      generated: $4627 A5 AC    LDA $AC
      source   : Statement call samples/toolkit/original/extracted/GEM.DEM:394:9 | THEN plot1(x(r),y(r),image(r)+192) | source 6044..6073 code $460B-$4635
    drawbot+$005F #0038
      original : $44F4 A6 A1    LDX $A1
      generated: $4629 69 C0    ADC #$C0
      source   : Statement call samples/toolkit/original/extracted/GEM.DEM:394:9 | THEN plot1(x(r),y(r),image(r)+192) | source 6044..6073 code $460B-$4635
    drawbot+$0061 #0039
      original : $44F6 A5 A0    LDA $A0
      generated: $462B 85 A2    STA $A2
      source   : Statement call samples/toolkit/original/extracted/GEM.DEM:394:9 | THEN plot1(x(r),y(r),image(r)+192) | source 6044..6073 code $460B-$4635
    drawbot+$0063 #0040
      original : $44F8 20 6E 3B JSR $3B6E ; plot1 $3B6E
      generated: $462D A4 A2    LDY $A2
      orig operand: plot1 $3B6E
      source   : Statement call samples/toolkit/original/extracted/GEM.DEM:394:9 | THEN plot1(x(r),y(r),image(r)+192) | source 6044..6073 code $460B-$4635
    drawbot+$0066 #0041
      original : $44FB AD 95 44 LDA $4495 ; r $4495
      generated: $462F A6 A1    LDX $A1
      orig operand: r $4495
      source   : Statement call samples/toolkit/original/extracted/GEM.DEM:394:9 | THEN plot1(x(r),y(r),image(r)+192) | source 6044..6073 code $460B-$4635
    drawbot+$0069 #0042
      original : $44FE 20 63 44 JSR $4463 ; qwin $4463
      generated: $4631 A5 A0    LDA $A0
      orig operand: qwin $4463
      source   : Statement call samples/toolkit/original/extracted/GEM.DEM:394:9 | THEN plot1(x(r),y(r),image(r)+192) | source 6044..6073 code $460B-$4635
    drawbot+$006C #0043
      original : $4501 4C 25 45 JMP $4525
      generated: $4633 20 61 3B JSR $3B61
      source   : Statement call samples/toolkit/original/extracted/GEM.DEM:394:9 | THEN plot1(x(r),y(r),image(r)+192) | source 6044..6073 code $460B-$4635

== bytes: original:samples/toolkit/survey/outputs/vm/GEMDEM.COM vs compat ==
exact: false  sizes: 10311 vs 11414
first diffs:
  @0004: $3A -> $89
  @0005: $58 -> $5C
  @0013: $65 -> $8A
  @0014: $66 -> $5C
  @0017: $67 -> $88
  @0018: $64 -> $5E
  @001B: $69 -> $86
  @001C: $62 -> $60
  @001F: $6B -> $84
  @0020: $60 -> $62
  @0023: $3B -> $82
  @0024: $60 -> $64
  @0027: $1D -> $00
  @0028: $30 -> $00
  @0126: $1D -> $00
  @0127: $30 -> $00
  @0225: $1D -> $00
  @0226: $30 -> $00
  @0324: $1D -> $00
  @0325: $30 -> $00
  @0423: $1D -> $00
  @0424: $30 -> $00
  @0427: $3B -> $B2
  @0428: $58 -> $64

== instructions: original:samples/toolkit/survey/outputs/vm/GEMDEM.COM vs compat ==
counts: 5760 vs 6355
  #0008
    left : $300C 05 65    ORA $65
    right: $300C 05 8A    ORA $8A
  #0009
    left : $300E 66 FE    ROR $FE
    right: $300E 5C       .BYTE $5C
  #0010
    left : $3010 01 67    ORA ($67,X)
    right: $300F FE 01 88 INC $8801,X
  #0011
    left : $3012 64       .BYTE $64
    right: $3012 5E FE 01 LSR $01FE,X
  #0012
    left : $3013 FE 01 69 INC $6901,X
    right: $3015 86 60    STX $60
  #0013
    left : $3016 62       .BYTE $62
    right: $3017 FE 01 84 INC $8401,X
  #0014
    left : $3017 FE 01 6B INC $6B01,X
    right: $301A 62       .BYTE $62
  #0015
    left : $301A 60       RTS
    right: $301B FE 01 82 INC $8201,X
  #0016
    left : $301B FE 01 3B INC $3B01,X
    right: $301E 64       .BYTE $64
  #0017
    left : $301E 60       RTS
    right: $301F 30 00    BMI $3021
  #0018
    left : $301F 30 00    BMI $3021
    right: $3021 00       BRK
  #0019
    left : $3021 1D 30 FF ORA $FF30,X
    right: $3022 00       BRK
  #0020
    left : $3024 00       BRK
    right: $3023 FF       .BYTE $FF
  #0272
    left : $3120 1D 30 FF ORA $FF30,X
    right: $311F 00       BRK
  #0275
    left : $3125 00       BRK
    right: $3122 FF       .BYTE $FF
  #0525
    left : $321F 1D 30 FF ORA $FF30,X
    right: $321C 00       BRK
  #0530
    left : $3226 00       BRK
    right: $3221 FF       .BYTE $FF
  #0778
    left : $331E 1D 30 FF ORA $FF30,X
    right: $3319 00       BRK
  #0785
    left : $3327 00       BRK
    right: $3320 FF       .BYTE $FF
  #1031
    left : $341D 1D 30 04 ORA $0430,X
    right: $3416 00       BRK
  #1033
    left : $3421 3B       .BYTE $3B
    right: $3418 00       BRK
  #1034
    left : $3422 58       CLI
    right: $3419 00       BRK
  #1036
    left : $3424 08       PHP
    right: $341B 00       BRK
  #1037
    left : $3425 21 34    AND ($34,X)
    right: $341C 00       BRK
